ARM GAS  C:\Users\dung\AppData\Local\Temp\ccZQdL3b.s 			page 1


   1              		.cpu cortex-m3
   2              		.arch armv7-m
   3              		.fpu softvfp
   4              		.eabi_attribute 20, 1
   5              		.eabi_attribute 21, 1
   6              		.eabi_attribute 23, 3
   7              		.eabi_attribute 24, 1
   8              		.eabi_attribute 25, 1
   9              		.eabi_attribute 26, 1
  10              		.eabi_attribute 30, 1
  11              		.eabi_attribute 34, 1
  12              		.eabi_attribute 18, 4
  13              		.file	"MQTTSubscribeClient.c"
  14              		.text
  15              	.Ltext0:
  16              		.cfi_sections	.debug_frame
  17              		.section	.text.MQTTSerialize_subscribeLength,"ax",%progbits
  18              		.align	1
  19              		.global	MQTTSerialize_subscribeLength
  20              		.syntax unified
  21              		.thumb
  22              		.thumb_func
  24              	MQTTSerialize_subscribeLength:
  25              	.LVL0:
  26              	.LFB3:
  27              		.file 1 "Core/Src/MQTTSubscribeClient.c"
   1:Core/Src/MQTTSubscribeClient.c **** /*******************************************************************************
   2:Core/Src/MQTTSubscribeClient.c ****  * Copyright (c) 2014 IBM Corp.
   3:Core/Src/MQTTSubscribeClient.c ****  *
   4:Core/Src/MQTTSubscribeClient.c ****  * All rights reserved. This program and the accompanying materials
   5:Core/Src/MQTTSubscribeClient.c ****  * are made available under the terms of the Eclipse Public License v1.0
   6:Core/Src/MQTTSubscribeClient.c ****  * and Eclipse Distribution License v1.0 which accompany this distribution.
   7:Core/Src/MQTTSubscribeClient.c ****  *
   8:Core/Src/MQTTSubscribeClient.c ****  * The Eclipse Public License is available at
   9:Core/Src/MQTTSubscribeClient.c ****  *    http://www.eclipse.org/legal/epl-v10.html
  10:Core/Src/MQTTSubscribeClient.c ****  * and the Eclipse Distribution License is available at
  11:Core/Src/MQTTSubscribeClient.c ****  *   http://www.eclipse.org/org/documents/edl-v10.php.
  12:Core/Src/MQTTSubscribeClient.c ****  *
  13:Core/Src/MQTTSubscribeClient.c ****  * Contributors:
  14:Core/Src/MQTTSubscribeClient.c ****  *    Ian Craggs - initial API and implementation and/or initial documentation
  15:Core/Src/MQTTSubscribeClient.c ****  *******************************************************************************/
  16:Core/Src/MQTTSubscribeClient.c **** 
  17:Core/Src/MQTTSubscribeClient.c **** #include "MQTTPacket.h"
  18:Core/Src/MQTTSubscribeClient.c **** #include "StackTrace.h"
  19:Core/Src/MQTTSubscribeClient.c **** 
  20:Core/Src/MQTTSubscribeClient.c **** #include <string.h>
  21:Core/Src/MQTTSubscribeClient.c **** 
  22:Core/Src/MQTTSubscribeClient.c **** /**
  23:Core/Src/MQTTSubscribeClient.c ****   * Determines the length of the MQTT subscribe packet that would be produced using the supplied pa
  24:Core/Src/MQTTSubscribeClient.c ****   * @param count the number of topic filter strings in topicFilters
  25:Core/Src/MQTTSubscribeClient.c ****   * @param topicFilters the array of topic filter strings to be used in the publish
  26:Core/Src/MQTTSubscribeClient.c ****   * @return the length of buffer needed to contain the serialized version of the packet
  27:Core/Src/MQTTSubscribeClient.c ****   */
  28:Core/Src/MQTTSubscribeClient.c **** int MQTTSerialize_subscribeLength(int count, MQTTString topicFilters[])
  29:Core/Src/MQTTSubscribeClient.c **** {
  28              		.loc 1 29 1 view -0
  29              		.cfi_startproc
ARM GAS  C:\Users\dung\AppData\Local\Temp\ccZQdL3b.s 			page 2


  30              		@ args = 0, pretend = 0, frame = 0
  31              		@ frame_needed = 0, uses_anonymous_args = 0
  32              		.loc 1 29 1 is_stmt 0 view .LVU1
  33 0000 F8B5     		push	{r3, r4, r5, r6, r7, lr}
  34              	.LCFI0:
  35              		.cfi_def_cfa_offset 24
  36              		.cfi_offset 3, -24
  37              		.cfi_offset 4, -20
  38              		.cfi_offset 5, -16
  39              		.cfi_offset 6, -12
  40              		.cfi_offset 7, -8
  41              		.cfi_offset 14, -4
  42 0002 0646     		mov	r6, r0
  43 0004 0F46     		mov	r7, r1
  30:Core/Src/MQTTSubscribeClient.c **** 	int i;
  44              		.loc 1 30 2 is_stmt 1 view .LVU2
  31:Core/Src/MQTTSubscribeClient.c **** 	int len = 2; /* packetid */
  45              		.loc 1 31 2 view .LVU3
  46              	.LVL1:
  32:Core/Src/MQTTSubscribeClient.c **** 
  33:Core/Src/MQTTSubscribeClient.c **** 	for (i = 0; i < count; ++i)
  47              		.loc 1 33 2 view .LVU4
  31:Core/Src/MQTTSubscribeClient.c **** 	int len = 2; /* packetid */
  48              		.loc 1 31 6 is_stmt 0 view .LVU5
  49 0006 0225     		movs	r5, #2
  50              		.loc 1 33 9 view .LVU6
  51 0008 0024     		movs	r4, #0
  52              		.loc 1 33 2 view .LVU7
  53 000a 0AE0     		b	.L2
  54              	.LVL2:
  55              	.L3:
  34:Core/Src/MQTTSubscribeClient.c **** 		len += 2 + MQTTstrlen(topicFilters[i]) + 1; /* length + topic + req_qos */
  56              		.loc 1 34 3 is_stmt 1 discriminator 3 view .LVU8
  57              		.loc 1 34 37 is_stmt 0 discriminator 3 view .LVU9
  58 000c 04EB4403 		add	r3, r4, r4, lsl #1
  59 0010 07EB8303 		add	r3, r7, r3, lsl #2
  60              		.loc 1 34 14 discriminator 3 view .LVU10
  61 0014 93E80700 		ldm	r3, {r0, r1, r2}
  62 0018 FFF7FEFF 		bl	MQTTstrlen
  63              	.LVL3:
  64              		.loc 1 34 42 discriminator 3 view .LVU11
  65 001c 0330     		adds	r0, r0, #3
  66              		.loc 1 34 7 discriminator 3 view .LVU12
  67 001e 0544     		add	r5, r5, r0
  68              	.LVL4:
  33:Core/Src/MQTTSubscribeClient.c **** 		len += 2 + MQTTstrlen(topicFilters[i]) + 1; /* length + topic + req_qos */
  69              		.loc 1 33 25 is_stmt 1 discriminator 3 view .LVU13
  70 0020 0134     		adds	r4, r4, #1
  71              	.LVL5:
  72              	.L2:
  33:Core/Src/MQTTSubscribeClient.c **** 		len += 2 + MQTTstrlen(topicFilters[i]) + 1; /* length + topic + req_qos */
  73              		.loc 1 33 14 discriminator 1 view .LVU14
  33:Core/Src/MQTTSubscribeClient.c **** 		len += 2 + MQTTstrlen(topicFilters[i]) + 1; /* length + topic + req_qos */
  74              		.loc 1 33 2 is_stmt 0 discriminator 1 view .LVU15
  75 0022 B442     		cmp	r4, r6
  76 0024 F2DB     		blt	.L3
  35:Core/Src/MQTTSubscribeClient.c **** 	return len;
ARM GAS  C:\Users\dung\AppData\Local\Temp\ccZQdL3b.s 			page 3


  77              		.loc 1 35 2 is_stmt 1 view .LVU16
  36:Core/Src/MQTTSubscribeClient.c **** }
  78              		.loc 1 36 1 is_stmt 0 view .LVU17
  79 0026 2846     		mov	r0, r5
  80 0028 F8BD     		pop	{r3, r4, r5, r6, r7, pc}
  81              		.loc 1 36 1 view .LVU18
  82              		.cfi_endproc
  83              	.LFE3:
  85              		.section	.text.MQTTSerialize_subscribe,"ax",%progbits
  86              		.align	1
  87              		.global	MQTTSerialize_subscribe
  88              		.syntax unified
  89              		.thumb
  90              		.thumb_func
  92              	MQTTSerialize_subscribe:
  93              	.LVL6:
  94              	.LFB4:
  37:Core/Src/MQTTSubscribeClient.c **** 
  38:Core/Src/MQTTSubscribeClient.c **** 
  39:Core/Src/MQTTSubscribeClient.c **** /**
  40:Core/Src/MQTTSubscribeClient.c ****   * Serializes the supplied subscribe data into the supplied buffer, ready for sending
  41:Core/Src/MQTTSubscribeClient.c ****   * @param buf the buffer into which the packet will be serialized
  42:Core/Src/MQTTSubscribeClient.c ****   * @param buflen the length in bytes of the supplied bufferr
  43:Core/Src/MQTTSubscribeClient.c ****   * @param dup integer - the MQTT dup flag
  44:Core/Src/MQTTSubscribeClient.c ****   * @param packetid integer - the MQTT packet identifier
  45:Core/Src/MQTTSubscribeClient.c ****   * @param count - number of members in the topicFilters and reqQos arrays
  46:Core/Src/MQTTSubscribeClient.c ****   * @param topicFilters - array of topic filter names
  47:Core/Src/MQTTSubscribeClient.c ****   * @param requestedQoSs - array of requested QoS
  48:Core/Src/MQTTSubscribeClient.c ****   * @return the length of the serialized data.  <= 0 indicates error
  49:Core/Src/MQTTSubscribeClient.c ****   */
  50:Core/Src/MQTTSubscribeClient.c **** int MQTTSerialize_subscribe(unsigned char* buf, int buflen, unsigned char dup, unsigned short packe
  51:Core/Src/MQTTSubscribeClient.c **** 		MQTTString topicFilters[], int requestedQoSs[])
  52:Core/Src/MQTTSubscribeClient.c **** {
  95              		.loc 1 52 1 is_stmt 1 view -0
  96              		.cfi_startproc
  97              		@ args = 12, pretend = 0, frame = 16
  98              		@ frame_needed = 0, uses_anonymous_args = 0
  99              		.loc 1 52 1 is_stmt 0 view .LVU20
 100 0000 2DE9F04F 		push	{r4, r5, r6, r7, r8, r9, r10, fp, lr}
 101              	.LCFI1:
 102              		.cfi_def_cfa_offset 36
 103              		.cfi_offset 4, -36
 104              		.cfi_offset 5, -32
 105              		.cfi_offset 6, -28
 106              		.cfi_offset 7, -24
 107              		.cfi_offset 8, -20
 108              		.cfi_offset 9, -16
 109              		.cfi_offset 10, -12
 110              		.cfi_offset 11, -8
 111              		.cfi_offset 14, -4
 112 0004 85B0     		sub	sp, sp, #20
 113              	.LCFI2:
 114              		.cfi_def_cfa_offset 56
 115 0006 0746     		mov	r7, r0
 116 0008 8946     		mov	r9, r1
 117 000a 9246     		mov	r10, r2
 118 000c 0193     		str	r3, [sp, #4]
ARM GAS  C:\Users\dung\AppData\Local\Temp\ccZQdL3b.s 			page 4


 119 000e 0E9C     		ldr	r4, [sp, #56]
 120 0010 0F9D     		ldr	r5, [sp, #60]
 121 0012 109E     		ldr	r6, [sp, #64]
  53:Core/Src/MQTTSubscribeClient.c **** 	unsigned char *ptr = buf;
 122              		.loc 1 53 2 is_stmt 1 view .LVU21
 123              		.loc 1 53 17 is_stmt 0 view .LVU22
 124 0014 0390     		str	r0, [sp, #12]
  54:Core/Src/MQTTSubscribeClient.c **** 	MQTTHeader header = {0};
 125              		.loc 1 54 2 is_stmt 1 view .LVU23
  55:Core/Src/MQTTSubscribeClient.c **** 	int rem_len = 0;
 126              		.loc 1 55 2 view .LVU24
 127              	.LVL7:
  56:Core/Src/MQTTSubscribeClient.c **** 	int rc = 0;
 128              		.loc 1 56 2 view .LVU25
  57:Core/Src/MQTTSubscribeClient.c **** 	int i = 0;
 129              		.loc 1 57 2 view .LVU26
  58:Core/Src/MQTTSubscribeClient.c **** 
  59:Core/Src/MQTTSubscribeClient.c **** 	FUNC_ENTRY;
 130              		.loc 1 59 12 view .LVU27
  60:Core/Src/MQTTSubscribeClient.c **** 	if (MQTTPacket_len(rem_len = MQTTSerialize_subscribeLength(count, topicFilters)) > buflen)
 131              		.loc 1 60 2 view .LVU28
 132              		.loc 1 60 31 is_stmt 0 view .LVU29
 133 0016 2946     		mov	r1, r5
 134              	.LVL8:
 135              		.loc 1 60 31 view .LVU30
 136 0018 2046     		mov	r0, r4
 137              	.LVL9:
 138              		.loc 1 60 31 view .LVU31
 139 001a FFF7FEFF 		bl	MQTTSerialize_subscribeLength
 140              	.LVL10:
 141              		.loc 1 60 31 view .LVU32
 142 001e 8346     		mov	fp, r0
 143              	.LVL11:
 144              		.loc 1 60 6 view .LVU33
 145 0020 FFF7FEFF 		bl	MQTTPacket_len
 146              	.LVL12:
 147              		.loc 1 60 5 view .LVU34
 148 0024 4845     		cmp	r0, r9
 149 0026 32DC     		bgt	.L9
 150 0028 4FF00008 		mov	r8, #0
 151              	.LVL13:
  61:Core/Src/MQTTSubscribeClient.c **** 	{
  62:Core/Src/MQTTSubscribeClient.c **** 		rc = MQTTPACKET_BUFFER_TOO_SHORT;
  63:Core/Src/MQTTSubscribeClient.c **** 		goto exit;
  64:Core/Src/MQTTSubscribeClient.c **** 	}
  65:Core/Src/MQTTSubscribeClient.c **** 
  66:Core/Src/MQTTSubscribeClient.c **** 	header.byte = 0;
 152              		.loc 1 66 2 is_stmt 1 view .LVU35
  67:Core/Src/MQTTSubscribeClient.c **** 	header.bits.type = SUBSCRIBE;
 153              		.loc 1 67 2 view .LVU36
 154              		.loc 1 67 19 is_stmt 0 view .LVU37
 155 002c 0823     		movs	r3, #8
 156 002e 63F30718 		bfi	r8, r3, #4, #4
 157              	.LVL14:
  68:Core/Src/MQTTSubscribeClient.c **** 	header.bits.dup = dup;
 158              		.loc 1 68 2 is_stmt 1 view .LVU38
 159              		.loc 1 68 18 is_stmt 0 view .LVU39
ARM GAS  C:\Users\dung\AppData\Local\Temp\ccZQdL3b.s 			page 5


 160 0032 6AF3C308 		bfi	r8, r10, #3, #1
  69:Core/Src/MQTTSubscribeClient.c **** 	header.bits.qos = 1;
 161              		.loc 1 69 2 is_stmt 1 view .LVU40
 162              		.loc 1 69 18 is_stmt 0 view .LVU41
 163 0036 0123     		movs	r3, #1
 164 0038 63F34208 		bfi	r8, r3, #1, #2
  70:Core/Src/MQTTSubscribeClient.c **** 	writeChar(&ptr, header.byte); /* write header */
 165              		.loc 1 70 2 is_stmt 1 view .LVU42
 166 003c 5FFA88F1 		uxtb	r1, r8
 167 0040 03A8     		add	r0, sp, #12
 168 0042 FFF7FEFF 		bl	writeChar
 169              	.LVL15:
  71:Core/Src/MQTTSubscribeClient.c **** 
  72:Core/Src/MQTTSubscribeClient.c **** 	ptr += MQTTPacket_encode(ptr, rem_len); /* write remaining length */;
 170              		.loc 1 72 2 view .LVU43
 171              		.loc 1 72 9 is_stmt 0 view .LVU44
 172 0046 5946     		mov	r1, fp
 173 0048 0398     		ldr	r0, [sp, #12]
 174 004a FFF7FEFF 		bl	MQTTPacket_encode
 175              	.LVL16:
 176              		.loc 1 72 6 view .LVU45
 177 004e 039B     		ldr	r3, [sp, #12]
 178 0050 0344     		add	r3, r3, r0
 179 0052 0393     		str	r3, [sp, #12]
 180              		.loc 1 72 70 is_stmt 1 view .LVU46
  73:Core/Src/MQTTSubscribeClient.c **** 
  74:Core/Src/MQTTSubscribeClient.c **** 	writeInt(&ptr, packetid);
 181              		.loc 1 74 2 view .LVU47
 182 0054 0199     		ldr	r1, [sp, #4]
 183 0056 03A8     		add	r0, sp, #12
 184 0058 FFF7FEFF 		bl	writeInt
 185              	.LVL17:
  75:Core/Src/MQTTSubscribeClient.c **** 
  76:Core/Src/MQTTSubscribeClient.c **** 	for (i = 0; i < count; ++i)
 186              		.loc 1 76 2 view .LVU48
 187              		.loc 1 76 9 is_stmt 0 view .LVU49
 188 005c 4FF00008 		mov	r8, #0
 189              	.LVL18:
 190              		.loc 1 76 2 view .LVU50
 191 0060 0EE0     		b	.L7
 192              	.LVL19:
 193              	.L8:
  77:Core/Src/MQTTSubscribeClient.c **** 	{
  78:Core/Src/MQTTSubscribeClient.c **** 		writeMQTTString(&ptr, topicFilters[i]);
 194              		.loc 1 78 3 is_stmt 1 discriminator 3 view .LVU51
 195              		.loc 1 78 37 is_stmt 0 discriminator 3 view .LVU52
 196 0062 08EB4803 		add	r3, r8, r8, lsl #1
 197 0066 05EB8303 		add	r3, r5, r3, lsl #2
 198              		.loc 1 78 3 discriminator 3 view .LVU53
 199 006a 0ECB     		ldm	r3, {r1, r2, r3}
 200 006c 03A8     		add	r0, sp, #12
 201 006e FFF7FEFF 		bl	writeMQTTString
 202              	.LVL20:
  79:Core/Src/MQTTSubscribeClient.c **** 		writeChar(&ptr, requestedQoSs[i]);
 203              		.loc 1 79 3 is_stmt 1 discriminator 3 view .LVU54
 204 0072 16F82810 		ldrb	r1, [r6, r8, lsl #2]	@ zero_extendqisi2
 205 0076 03A8     		add	r0, sp, #12
ARM GAS  C:\Users\dung\AppData\Local\Temp\ccZQdL3b.s 			page 6


 206 0078 FFF7FEFF 		bl	writeChar
 207              	.LVL21:
  76:Core/Src/MQTTSubscribeClient.c **** 	{
 208              		.loc 1 76 25 discriminator 3 view .LVU55
 209 007c 08F10108 		add	r8, r8, #1
 210              	.LVL22:
 211              	.L7:
  76:Core/Src/MQTTSubscribeClient.c **** 	{
 212              		.loc 1 76 14 discriminator 1 view .LVU56
  76:Core/Src/MQTTSubscribeClient.c **** 	{
 213              		.loc 1 76 2 is_stmt 0 discriminator 1 view .LVU57
 214 0080 A045     		cmp	r8, r4
 215 0082 EEDB     		blt	.L8
  80:Core/Src/MQTTSubscribeClient.c **** 	}
  81:Core/Src/MQTTSubscribeClient.c **** 
  82:Core/Src/MQTTSubscribeClient.c **** 	rc = ptr - buf;
 216              		.loc 1 82 2 is_stmt 1 view .LVU58
 217              		.loc 1 82 11 is_stmt 0 view .LVU59
 218 0084 0398     		ldr	r0, [sp, #12]
 219              		.loc 1 82 5 view .LVU60
 220 0086 C01B     		subs	r0, r0, r7
 221              	.LVL23:
 222              	.L5:
  83:Core/Src/MQTTSubscribeClient.c **** exit:
  84:Core/Src/MQTTSubscribeClient.c **** 	FUNC_EXIT_RC(rc);
  85:Core/Src/MQTTSubscribeClient.c **** 	return rc;
  86:Core/Src/MQTTSubscribeClient.c **** }
 223              		.loc 1 86 1 view .LVU61
 224 0088 05B0     		add	sp, sp, #20
 225              	.LCFI3:
 226              		.cfi_remember_state
 227              		.cfi_def_cfa_offset 36
 228              		@ sp needed
 229 008a BDE8F08F 		pop	{r4, r5, r6, r7, r8, r9, r10, fp, pc}
 230              	.LVL24:
 231              	.L9:
 232              	.LCFI4:
 233              		.cfi_restore_state
  62:Core/Src/MQTTSubscribeClient.c **** 		goto exit;
 234              		.loc 1 62 6 view .LVU62
 235 008e 6FF00100 		mvn	r0, #1
 236              	.L6:
 237              	.LVL25:
  84:Core/Src/MQTTSubscribeClient.c **** 	return rc;
 238              		.loc 1 84 18 is_stmt 1 view .LVU63
  85:Core/Src/MQTTSubscribeClient.c **** }
 239              		.loc 1 85 2 view .LVU64
  85:Core/Src/MQTTSubscribeClient.c **** }
 240              		.loc 1 85 9 is_stmt 0 view .LVU65
 241 0092 F9E7     		b	.L5
 242              		.cfi_endproc
 243              	.LFE4:
 245              		.section	.text.MQTTDeserialize_suback,"ax",%progbits
 246              		.align	1
 247              		.global	MQTTDeserialize_suback
 248              		.syntax unified
 249              		.thumb
ARM GAS  C:\Users\dung\AppData\Local\Temp\ccZQdL3b.s 			page 7


 250              		.thumb_func
 252              	MQTTDeserialize_suback:
 253              	.LVL26:
 254              	.LFB5:
  87:Core/Src/MQTTSubscribeClient.c **** 
  88:Core/Src/MQTTSubscribeClient.c **** 
  89:Core/Src/MQTTSubscribeClient.c **** 
  90:Core/Src/MQTTSubscribeClient.c **** /**
  91:Core/Src/MQTTSubscribeClient.c ****   * Deserializes the supplied (wire) buffer into suback data
  92:Core/Src/MQTTSubscribeClient.c ****   * @param packetid returned integer - the MQTT packet identifier
  93:Core/Src/MQTTSubscribeClient.c ****   * @param maxcount - the maximum number of members allowed in the grantedQoSs array
  94:Core/Src/MQTTSubscribeClient.c ****   * @param count returned integer - number of members in the grantedQoSs array
  95:Core/Src/MQTTSubscribeClient.c ****   * @param grantedQoSs returned array of integers - the granted qualities of service
  96:Core/Src/MQTTSubscribeClient.c ****   * @param buf the raw buffer data, of the correct length determined by the remaining length field
  97:Core/Src/MQTTSubscribeClient.c ****   * @param buflen the length in bytes of the data in the supplied buffer
  98:Core/Src/MQTTSubscribeClient.c ****   * @return error code.  1 is success, 0 is failure
  99:Core/Src/MQTTSubscribeClient.c ****   */
 100:Core/Src/MQTTSubscribeClient.c **** int MQTTDeserialize_suback(unsigned short* packetid, int maxcount, int* count, int grantedQoSs[], u
 101:Core/Src/MQTTSubscribeClient.c **** {
 255              		.loc 1 101 1 is_stmt 1 view -0
 256              		.cfi_startproc
 257              		@ args = 8, pretend = 0, frame = 8
 258              		@ frame_needed = 0, uses_anonymous_args = 0
 259              		.loc 1 101 1 is_stmt 0 view .LVU67
 260 0000 2DE9F041 		push	{r4, r5, r6, r7, r8, lr}
 261              	.LCFI5:
 262              		.cfi_def_cfa_offset 24
 263              		.cfi_offset 4, -24
 264              		.cfi_offset 5, -20
 265              		.cfi_offset 6, -16
 266              		.cfi_offset 7, -12
 267              		.cfi_offset 8, -8
 268              		.cfi_offset 14, -4
 269 0004 82B0     		sub	sp, sp, #8
 270              	.LCFI6:
 271              		.cfi_def_cfa_offset 32
 272 0006 8046     		mov	r8, r0
 273 0008 0D46     		mov	r5, r1
 274 000a 1446     		mov	r4, r2
 275 000c 1E46     		mov	r6, r3
 102:Core/Src/MQTTSubscribeClient.c **** 	MQTTHeader header = {0};
 276              		.loc 1 102 2 is_stmt 1 view .LVU68
 103:Core/Src/MQTTSubscribeClient.c **** 	unsigned char* curdata = buf;
 277              		.loc 1 103 2 view .LVU69
 278              		.loc 1 103 17 is_stmt 0 view .LVU70
 279 000e 089B     		ldr	r3, [sp, #32]
 280              	.LVL27:
 281              		.loc 1 103 17 view .LVU71
 282 0010 0193     		str	r3, [sp, #4]
 104:Core/Src/MQTTSubscribeClient.c **** 	unsigned char* enddata = NULL;
 283              		.loc 1 104 2 is_stmt 1 view .LVU72
 284              	.LVL28:
 105:Core/Src/MQTTSubscribeClient.c **** 	int rc = 0;
 285              		.loc 1 105 2 view .LVU73
 106:Core/Src/MQTTSubscribeClient.c **** 	int mylen;
 286              		.loc 1 106 2 view .LVU74
 107:Core/Src/MQTTSubscribeClient.c **** 
ARM GAS  C:\Users\dung\AppData\Local\Temp\ccZQdL3b.s 			page 8


 108:Core/Src/MQTTSubscribeClient.c **** 	FUNC_ENTRY;
 287              		.loc 1 108 12 view .LVU75
 109:Core/Src/MQTTSubscribeClient.c **** 	header.byte = readChar(&curdata);
 288              		.loc 1 109 2 view .LVU76
 289              		.loc 1 109 16 is_stmt 0 view .LVU77
 290 0012 01A8     		add	r0, sp, #4
 291              	.LVL29:
 292              		.loc 1 109 16 view .LVU78
 293 0014 FFF7FEFF 		bl	readChar
 294              	.LVL30:
 110:Core/Src/MQTTSubscribeClient.c **** 	if (header.bits.type != SUBACK)
 295              		.loc 1 110 2 is_stmt 1 view .LVU79
 296              		.loc 1 110 23 is_stmt 0 view .LVU80
 297 0018 00F0F003 		and	r3, r0, #240
 298              		.loc 1 110 5 view .LVU81
 299 001c 902B     		cmp	r3, #144
 300 001e 03D0     		beq	.L18
 105:Core/Src/MQTTSubscribeClient.c **** 	int mylen;
 301              		.loc 1 105 6 view .LVU82
 302 0020 0020     		movs	r0, #0
 303              	.LVL31:
 304              	.L11:
 111:Core/Src/MQTTSubscribeClient.c **** 		goto exit;
 112:Core/Src/MQTTSubscribeClient.c **** 
 113:Core/Src/MQTTSubscribeClient.c **** 	curdata += (rc = MQTTPacket_decodeBuf(curdata, &mylen)); /* read remaining length */
 114:Core/Src/MQTTSubscribeClient.c **** 	enddata = curdata + mylen;
 115:Core/Src/MQTTSubscribeClient.c **** 	if (enddata - curdata < 2)
 116:Core/Src/MQTTSubscribeClient.c **** 		goto exit;
 117:Core/Src/MQTTSubscribeClient.c **** 
 118:Core/Src/MQTTSubscribeClient.c **** 	*packetid = readInt(&curdata);
 119:Core/Src/MQTTSubscribeClient.c **** 
 120:Core/Src/MQTTSubscribeClient.c **** 	*count = 0;
 121:Core/Src/MQTTSubscribeClient.c **** 	while (curdata < enddata)
 122:Core/Src/MQTTSubscribeClient.c **** 	{
 123:Core/Src/MQTTSubscribeClient.c **** 		if (*count > maxcount)
 124:Core/Src/MQTTSubscribeClient.c **** 		{
 125:Core/Src/MQTTSubscribeClient.c **** 			rc = -1;
 126:Core/Src/MQTTSubscribeClient.c **** 			goto exit;
 127:Core/Src/MQTTSubscribeClient.c **** 		}
 128:Core/Src/MQTTSubscribeClient.c **** 		grantedQoSs[(*count)++] = readChar(&curdata);
 129:Core/Src/MQTTSubscribeClient.c **** 	}
 130:Core/Src/MQTTSubscribeClient.c **** 
 131:Core/Src/MQTTSubscribeClient.c **** 	rc = 1;
 132:Core/Src/MQTTSubscribeClient.c **** exit:
 133:Core/Src/MQTTSubscribeClient.c **** 	FUNC_EXIT_RC(rc);
 134:Core/Src/MQTTSubscribeClient.c **** 	return rc;
 135:Core/Src/MQTTSubscribeClient.c **** }
 305              		.loc 1 135 1 view .LVU83
 306 0022 02B0     		add	sp, sp, #8
 307              	.LCFI7:
 308              		.cfi_remember_state
 309              		.cfi_def_cfa_offset 24
 310              		@ sp needed
 311 0024 BDE8F081 		pop	{r4, r5, r6, r7, r8, pc}
 312              	.LVL32:
 313              	.L18:
 314              	.LCFI8:
ARM GAS  C:\Users\dung\AppData\Local\Temp\ccZQdL3b.s 			page 9


 315              		.cfi_restore_state
 113:Core/Src/MQTTSubscribeClient.c **** 	enddata = curdata + mylen;
 316              		.loc 1 113 2 is_stmt 1 view .LVU84
 113:Core/Src/MQTTSubscribeClient.c **** 	enddata = curdata + mylen;
 317              		.loc 1 113 19 is_stmt 0 view .LVU85
 318 0028 6946     		mov	r1, sp
 319 002a 0198     		ldr	r0, [sp, #4]
 320 002c FFF7FEFF 		bl	MQTTPacket_decodeBuf
 321              	.LVL33:
 113:Core/Src/MQTTSubscribeClient.c **** 	enddata = curdata + mylen;
 322              		.loc 1 113 10 view .LVU86
 323 0030 019F     		ldr	r7, [sp, #4]
 324 0032 0744     		add	r7, r7, r0
 325 0034 0197     		str	r7, [sp, #4]
 114:Core/Src/MQTTSubscribeClient.c **** 	if (enddata - curdata < 2)
 326              		.loc 1 114 2 is_stmt 1 view .LVU87
 114:Core/Src/MQTTSubscribeClient.c **** 	if (enddata - curdata < 2)
 327              		.loc 1 114 20 is_stmt 0 view .LVU88
 328 0036 009B     		ldr	r3, [sp]
 114:Core/Src/MQTTSubscribeClient.c **** 	if (enddata - curdata < 2)
 329              		.loc 1 114 10 view .LVU89
 330 0038 1F44     		add	r7, r7, r3
 331              	.LVL34:
 115:Core/Src/MQTTSubscribeClient.c **** 		goto exit;
 332              		.loc 1 115 2 is_stmt 1 view .LVU90
 115:Core/Src/MQTTSubscribeClient.c **** 		goto exit;
 333              		.loc 1 115 5 is_stmt 0 view .LVU91
 334 003a 012B     		cmp	r3, #1
 335 003c F1DD     		ble	.L11
 118:Core/Src/MQTTSubscribeClient.c **** 
 336              		.loc 1 118 2 is_stmt 1 view .LVU92
 118:Core/Src/MQTTSubscribeClient.c **** 
 337              		.loc 1 118 14 is_stmt 0 view .LVU93
 338 003e 01A8     		add	r0, sp, #4
 339              	.LVL35:
 118:Core/Src/MQTTSubscribeClient.c **** 
 340              		.loc 1 118 14 view .LVU94
 341 0040 FFF7FEFF 		bl	readInt
 342              	.LVL36:
 118:Core/Src/MQTTSubscribeClient.c **** 
 343              		.loc 1 118 12 view .LVU95
 344 0044 A8F80000 		strh	r0, [r8]	@ movhi
 120:Core/Src/MQTTSubscribeClient.c **** 	while (curdata < enddata)
 345              		.loc 1 120 2 is_stmt 1 view .LVU96
 120:Core/Src/MQTTSubscribeClient.c **** 	while (curdata < enddata)
 346              		.loc 1 120 9 is_stmt 0 view .LVU97
 347 0048 0023     		movs	r3, #0
 348 004a 2360     		str	r3, [r4]
 121:Core/Src/MQTTSubscribeClient.c **** 	{
 349              		.loc 1 121 2 is_stmt 1 view .LVU98
 350              	.L13:
 121:Core/Src/MQTTSubscribeClient.c **** 	{
 351              		.loc 1 121 8 view .LVU99
 121:Core/Src/MQTTSubscribeClient.c **** 	{
 352              		.loc 1 121 17 is_stmt 0 view .LVU100
 353 004c 019B     		ldr	r3, [sp, #4]
 121:Core/Src/MQTTSubscribeClient.c **** 	{
ARM GAS  C:\Users\dung\AppData\Local\Temp\ccZQdL3b.s 			page 10


 354              		.loc 1 121 8 view .LVU101
 355 004e BB42     		cmp	r3, r7
 356 0050 0BD2     		bcs	.L19
 123:Core/Src/MQTTSubscribeClient.c **** 		{
 357              		.loc 1 123 3 is_stmt 1 view .LVU102
 123:Core/Src/MQTTSubscribeClient.c **** 		{
 358              		.loc 1 123 7 is_stmt 0 view .LVU103
 359 0052 2368     		ldr	r3, [r4]
 123:Core/Src/MQTTSubscribeClient.c **** 		{
 360              		.loc 1 123 6 view .LVU104
 361 0054 AB42     		cmp	r3, r5
 362 0056 0ADC     		bgt	.L16
 128:Core/Src/MQTTSubscribeClient.c **** 	}
 363              		.loc 1 128 3 is_stmt 1 view .LVU105
 128:Core/Src/MQTTSubscribeClient.c **** 	}
 364              		.loc 1 128 29 is_stmt 0 view .LVU106
 365 0058 01A8     		add	r0, sp, #4
 366 005a FFF7FEFF 		bl	readChar
 367              	.LVL37:
 128:Core/Src/MQTTSubscribeClient.c **** 	}
 368              		.loc 1 128 16 view .LVU107
 369 005e 2268     		ldr	r2, [r4]
 128:Core/Src/MQTTSubscribeClient.c **** 	}
 370              		.loc 1 128 23 view .LVU108
 371 0060 531C     		adds	r3, r2, #1
 372 0062 2360     		str	r3, [r4]
 128:Core/Src/MQTTSubscribeClient.c **** 	}
 373              		.loc 1 128 27 view .LVU109
 374 0064 46F82200 		str	r0, [r6, r2, lsl #2]
 375 0068 F0E7     		b	.L13
 376              	.L19:
 131:Core/Src/MQTTSubscribeClient.c **** exit:
 377              		.loc 1 131 5 view .LVU110
 378 006a 0120     		movs	r0, #1
 379 006c D9E7     		b	.L11
 380              	.L16:
 125:Core/Src/MQTTSubscribeClient.c **** 			goto exit;
 381              		.loc 1 125 7 view .LVU111
 382 006e 4FF0FF30 		mov	r0, #-1
 383              	.L12:
 384              	.LVL38:
 133:Core/Src/MQTTSubscribeClient.c **** 	return rc;
 385              		.loc 1 133 18 is_stmt 1 view .LVU112
 134:Core/Src/MQTTSubscribeClient.c **** }
 386              		.loc 1 134 2 view .LVU113
 134:Core/Src/MQTTSubscribeClient.c **** }
 387              		.loc 1 134 9 is_stmt 0 view .LVU114
 388 0072 D6E7     		b	.L11
 389              		.cfi_endproc
 390              	.LFE5:
 392              		.text
 393              	.Letext0:
 394              		.file 2 "Core/Inc/MQTTPacket.h"
ARM GAS  C:\Users\dung\AppData\Local\Temp\ccZQdL3b.s 			page 11

