ARM GAS  C:\Users\dung\AppData\Local\Temp\ccSZjXau.s 			page 1


   1              		.cpu cortex-m3
   2              		.arch armv7-m
   3              		.fpu softvfp
   4              		.eabi_attribute 20, 1
   5              		.eabi_attribute 21, 1
   6              		.eabi_attribute 23, 3
   7              		.eabi_attribute 24, 1
   8              		.eabi_attribute 25, 1
   9              		.eabi_attribute 26, 1
  10              		.eabi_attribute 30, 1
  11              		.eabi_attribute 34, 1
  12              		.eabi_attribute 18, 4
  13              		.file	"MQTTFormat.c"
  14              		.text
  15              	.Ltext0:
  16              		.cfi_sections	.debug_frame
  17              		.section	.text.MQTTPacket_getName,"ax",%progbits
  18              		.align	1
  19              		.global	MQTTPacket_getName
  20              		.syntax unified
  21              		.thumb
  22              		.thumb_func
  24              	MQTTPacket_getName:
  25              	.LVL0:
  26              	.LFB3:
  27              		.file 1 "Core/Src/MQTTFormat.c"
   1:Core/Src/MQTTFormat.c **** /*******************************************************************************
   2:Core/Src/MQTTFormat.c ****  * Copyright (c) 2014 IBM Corp.
   3:Core/Src/MQTTFormat.c ****  *
   4:Core/Src/MQTTFormat.c ****  * All rights reserved. This program and the accompanying materials
   5:Core/Src/MQTTFormat.c ****  * are made available under the terms of the Eclipse Public License v1.0
   6:Core/Src/MQTTFormat.c ****  * and Eclipse Distribution License v1.0 which accompany this distribution.
   7:Core/Src/MQTTFormat.c ****  *
   8:Core/Src/MQTTFormat.c ****  * The Eclipse Public License is available at
   9:Core/Src/MQTTFormat.c ****  *    http://www.eclipse.org/legal/epl-v10.html
  10:Core/Src/MQTTFormat.c ****  * and the Eclipse Distribution License is available at
  11:Core/Src/MQTTFormat.c ****  *   http://www.eclipse.org/org/documents/edl-v10.php.
  12:Core/Src/MQTTFormat.c ****  *
  13:Core/Src/MQTTFormat.c ****  * Contributors:
  14:Core/Src/MQTTFormat.c ****  *    Ian Craggs - initial API and implementation and/or initial documentation
  15:Core/Src/MQTTFormat.c ****  *******************************************************************************/
  16:Core/Src/MQTTFormat.c **** 
  17:Core/Src/MQTTFormat.c **** #include "StackTrace.h"
  18:Core/Src/MQTTFormat.c **** #include "MQTTPacket.h"
  19:Core/Src/MQTTFormat.c **** 
  20:Core/Src/MQTTFormat.c **** #include <string.h>
  21:Core/Src/MQTTFormat.c **** 
  22:Core/Src/MQTTFormat.c **** 
  23:Core/Src/MQTTFormat.c **** const char* MQTTPacket_names[] =
  24:Core/Src/MQTTFormat.c **** {
  25:Core/Src/MQTTFormat.c **** 	"RESERVED", "CONNECT", "CONNACK", "PUBLISH", "PUBACK", "PUBREC", "PUBREL",
  26:Core/Src/MQTTFormat.c **** 	"PUBCOMP", "SUBSCRIBE", "SUBACK", "UNSUBSCRIBE", "UNSUBACK",
  27:Core/Src/MQTTFormat.c **** 	"PINGREQ", "PINGRESP", "DISCONNECT"
  28:Core/Src/MQTTFormat.c **** };
  29:Core/Src/MQTTFormat.c **** 
  30:Core/Src/MQTTFormat.c **** 
  31:Core/Src/MQTTFormat.c **** const char* MQTTPacket_getName(unsigned short packetid)
ARM GAS  C:\Users\dung\AppData\Local\Temp\ccSZjXau.s 			page 2


  32:Core/Src/MQTTFormat.c **** {
  28              		.loc 1 32 1 view -0
  29              		.cfi_startproc
  30              		@ args = 0, pretend = 0, frame = 0
  31              		@ frame_needed = 0, uses_anonymous_args = 0
  32              		@ link register save eliminated.
  33:Core/Src/MQTTFormat.c **** 	return MQTTPacket_names[packetid];
  33              		.loc 1 33 2 view .LVU1
  34:Core/Src/MQTTFormat.c **** }
  34              		.loc 1 34 1 is_stmt 0 view .LVU2
  35 0000 014B     		ldr	r3, .L2
  36 0002 53F82000 		ldr	r0, [r3, r0, lsl #2]
  37              	.LVL1:
  38              		.loc 1 34 1 view .LVU3
  39 0006 7047     		bx	lr
  40              	.L3:
  41              		.align	2
  42              	.L2:
  43 0008 00000000 		.word	.LANCHOR0
  44              		.cfi_endproc
  45              	.LFE3:
  47              		.section	.rodata.MQTTStringFormat_connect.str1.4,"aMS",%progbits,1
  48              		.align	2
  49              	.LC0:
  50 0000 434F4E4E 		.ascii	"CONNECT MQTT version %d, client id %.*s, clean sess"
  50      45435420 
  50      4D515454 
  50      20766572 
  50      73696F6E 
  51 0033 696F6E20 		.ascii	"ion %d, keep alive %d\000"
  51      25642C20 
  51      6B656570 
  51      20616C69 
  51      76652025 
  52 0049 000000   		.align	2
  53              	.LC1:
  54 004c 2C207769 		.ascii	", will QoS %d, will retain %d, will topic %.*s, wil"
  54      6C6C2051 
  54      6F532025 
  54      642C2077 
  54      696C6C20 
  55 007f 6C206D65 		.ascii	"l message %.*s\000"
  55      73736167 
  55      6520252E 
  55      2A7300
  56 008e 0000     		.align	2
  57              	.LC2:
  58 0090 2C207573 		.ascii	", user name %.*s\000"
  58      6572206E 
  58      616D6520 
  58      252E2A73 
  58      00
  59 00a1 000000   		.align	2
  60              	.LC3:
  61 00a4 2C207061 		.ascii	", password %.*s\000"
  61      7373776F 
  61      72642025 
ARM GAS  C:\Users\dung\AppData\Local\Temp\ccSZjXau.s 			page 3


  61      2E2A7300 
  62              		.section	.text.MQTTStringFormat_connect,"ax",%progbits
  63              		.align	1
  64              		.global	MQTTStringFormat_connect
  65              		.syntax unified
  66              		.thumb
  67              		.thumb_func
  69              	MQTTStringFormat_connect:
  70              	.LVL2:
  71              	.LFB4:
  35:Core/Src/MQTTFormat.c **** 
  36:Core/Src/MQTTFormat.c **** 
  37:Core/Src/MQTTFormat.c **** int MQTTStringFormat_connect(char* strbuf, int strbuflen, MQTTPacket_connectData* data)
  38:Core/Src/MQTTFormat.c **** {
  72              		.loc 1 38 1 is_stmt 1 view -0
  73              		.cfi_startproc
  74              		@ args = 0, pretend = 0, frame = 0
  75              		@ frame_needed = 0, uses_anonymous_args = 0
  76              		.loc 1 38 1 is_stmt 0 view .LVU5
  77 0000 F0B5     		push	{r4, r5, r6, r7, lr}
  78              	.LCFI0:
  79              		.cfi_def_cfa_offset 20
  80              		.cfi_offset 4, -20
  81              		.cfi_offset 5, -16
  82              		.cfi_offset 6, -12
  83              		.cfi_offset 7, -8
  84              		.cfi_offset 14, -4
  85 0002 87B0     		sub	sp, sp, #28
  86              	.LCFI1:
  87              		.cfi_def_cfa_offset 48
  88 0004 0646     		mov	r6, r0
  89 0006 0F46     		mov	r7, r1
  90 0008 1446     		mov	r4, r2
  39:Core/Src/MQTTFormat.c **** 	int strindex = 0;
  91              		.loc 1 39 2 is_stmt 1 view .LVU6
  92              	.LVL3:
  40:Core/Src/MQTTFormat.c **** 
  41:Core/Src/MQTTFormat.c **** 	strindex = snprintf(strbuf, strbuflen,
  93              		.loc 1 41 2 view .LVU7
  42:Core/Src/MQTTFormat.c **** 			"CONNECT MQTT version %d, client id %.*s, clean session %d, keep alive %d",
  43:Core/Src/MQTTFormat.c **** 			(int)data->MQTTVersion, data->clientID.lenstring.len, data->clientID.lenstring.data,
  44:Core/Src/MQTTFormat.c **** 			(int)data->cleansession, data->keepAliveInterval);
  94              		.loc 1 44 13 is_stmt 0 view .LVU8
  95 000a 937E     		ldrb	r3, [r2, #26]	@ zero_extendqisi2
  96              		.loc 1 44 33 view .LVU9
  97 000c 128B     		ldrh	r2, [r2, #24]
  98              	.LVL4:
  41:Core/Src/MQTTFormat.c **** 			"CONNECT MQTT version %d, client id %.*s, clean session %d, keep alive %d",
  99              		.loc 1 41 13 view .LVU10
 100 000e 0392     		str	r2, [sp, #12]
 101 0010 0293     		str	r3, [sp, #8]
 102 0012 6369     		ldr	r3, [r4, #20]
 103 0014 0193     		str	r3, [sp, #4]
 104 0016 2369     		ldr	r3, [r4, #16]
 105 0018 0093     		str	r3, [sp]
 106 001a 237A     		ldrb	r3, [r4, #8]	@ zero_extendqisi2
 107 001c 1B4A     		ldr	r2, .L12
ARM GAS  C:\Users\dung\AppData\Local\Temp\ccSZjXau.s 			page 4


 108 001e FFF7FEFF 		bl	snprintf
 109              	.LVL5:
  41:Core/Src/MQTTFormat.c **** 			"CONNECT MQTT version %d, client id %.*s, clean session %d, keep alive %d",
 110              		.loc 1 41 13 view .LVU11
 111 0022 0546     		mov	r5, r0
 112              	.LVL6:
  45:Core/Src/MQTTFormat.c **** 	if (data->willFlag)
 113              		.loc 1 45 2 is_stmt 1 view .LVU12
 114              		.loc 1 45 10 is_stmt 0 view .LVU13
 115 0024 E37E     		ldrb	r3, [r4, #27]	@ zero_extendqisi2
 116              		.loc 1 45 5 view .LVU14
 117 0026 63B9     		cbnz	r3, .L9
 118              	.LVL7:
 119              	.L5:
  46:Core/Src/MQTTFormat.c **** 		strindex += snprintf(&strbuf[strindex], strbuflen - strindex,
  47:Core/Src/MQTTFormat.c **** 				", will QoS %d, will retain %d, will topic %.*s, will message %.*s",
  48:Core/Src/MQTTFormat.c **** 				data->will.qos, data->will.retained,
  49:Core/Src/MQTTFormat.c **** 				data->will.topicName.lenstring.len, data->will.topicName.lenstring.data,
  50:Core/Src/MQTTFormat.c **** 				data->will.message.lenstring.len, data->will.message.lenstring.data);
  51:Core/Src/MQTTFormat.c **** 	if (data->username.lenstring.data && data->username.lenstring.len > 0)
 120              		.loc 1 51 2 is_stmt 1 view .LVU15
 121              		.loc 1 51 30 is_stmt 0 view .LVU16
 122 0028 A26C     		ldr	r2, [r4, #72]
 123              		.loc 1 51 5 view .LVU17
 124 002a 12B1     		cbz	r2, .L6
 125              		.loc 1 51 63 discriminator 1 view .LVU18
 126 002c 636C     		ldr	r3, [r4, #68]
 127              		.loc 1 51 36 discriminator 1 view .LVU19
 128 002e 002B     		cmp	r3, #0
 129 0030 1BDC     		bgt	.L10
 130              	.L6:
  52:Core/Src/MQTTFormat.c **** 		strindex += snprintf(&strbuf[strindex], strbuflen - strindex,
  53:Core/Src/MQTTFormat.c **** 				", user name %.*s", data->username.lenstring.len, data->username.lenstring.data);
  54:Core/Src/MQTTFormat.c **** 	if (data->password.lenstring.data && data->password.lenstring.len > 0)
 131              		.loc 1 54 2 is_stmt 1 view .LVU20
 132              		.loc 1 54 30 is_stmt 0 view .LVU21
 133 0032 626D     		ldr	r2, [r4, #84]
 134              		.loc 1 54 5 view .LVU22
 135 0034 12B1     		cbz	r2, .L4
 136              		.loc 1 54 63 discriminator 1 view .LVU23
 137 0036 236D     		ldr	r3, [r4, #80]
 138              		.loc 1 54 36 discriminator 1 view .LVU24
 139 0038 002B     		cmp	r3, #0
 140 003a 1EDC     		bgt	.L11
 141              	.L4:
  55:Core/Src/MQTTFormat.c **** 		strindex += snprintf(&strbuf[strindex], strbuflen - strindex,
  56:Core/Src/MQTTFormat.c **** 				", password %.*s", data->password.lenstring.len, data->password.lenstring.data);
  57:Core/Src/MQTTFormat.c **** 	return strindex;
  58:Core/Src/MQTTFormat.c **** }
 142              		.loc 1 58 1 view .LVU25
 143 003c 2846     		mov	r0, r5
 144 003e 07B0     		add	sp, sp, #28
 145              	.LCFI2:
 146              		.cfi_remember_state
 147              		.cfi_def_cfa_offset 20
 148              		@ sp needed
 149 0040 F0BD     		pop	{r4, r5, r6, r7, pc}
ARM GAS  C:\Users\dung\AppData\Local\Temp\ccSZjXau.s 			page 5


 150              	.LVL8:
 151              	.L9:
 152              	.LCFI3:
 153              		.cfi_restore_state
  46:Core/Src/MQTTFormat.c **** 				", will QoS %d, will retain %d, will topic %.*s, will message %.*s",
 154              		.loc 1 46 3 is_stmt 1 view .LVU26
  48:Core/Src/MQTTFormat.c **** 				data->will.topicName.lenstring.len, data->will.topicName.lenstring.data,
 155              		.loc 1 48 31 is_stmt 0 view .LVU27
 156 0042 94F83C30 		ldrb	r3, [r4, #60]	@ zero_extendqisi2
  46:Core/Src/MQTTFormat.c **** 				", will QoS %d, will retain %d, will topic %.*s, will message %.*s",
 157              		.loc 1 46 15 view .LVU28
 158 0046 A26B     		ldr	r2, [r4, #56]
 159 0048 0492     		str	r2, [sp, #16]
 160 004a 626B     		ldr	r2, [r4, #52]
 161 004c 0392     		str	r2, [sp, #12]
 162 004e E26A     		ldr	r2, [r4, #44]
 163 0050 0292     		str	r2, [sp, #8]
 164 0052 A26A     		ldr	r2, [r4, #40]
 165 0054 0192     		str	r2, [sp, #4]
 166 0056 0093     		str	r3, [sp]
 167 0058 94F83D30 		ldrb	r3, [r4, #61]	@ zero_extendqisi2
 168 005c 0C4A     		ldr	r2, .L12+4
 169 005e 391A     		subs	r1, r7, r0
 170 0060 3018     		adds	r0, r6, r0
 171              	.LVL9:
  46:Core/Src/MQTTFormat.c **** 				", will QoS %d, will retain %d, will topic %.*s, will message %.*s",
 172              		.loc 1 46 15 view .LVU29
 173 0062 FFF7FEFF 		bl	snprintf
 174              	.LVL10:
  46:Core/Src/MQTTFormat.c **** 				", will QoS %d, will retain %d, will topic %.*s, will message %.*s",
 175              		.loc 1 46 12 view .LVU30
 176 0066 0544     		add	r5, r5, r0
 177              	.LVL11:
  46:Core/Src/MQTTFormat.c **** 				", will QoS %d, will retain %d, will topic %.*s, will message %.*s",
 178              		.loc 1 46 12 view .LVU31
 179 0068 DEE7     		b	.L5
 180              	.L10:
  52:Core/Src/MQTTFormat.c **** 				", user name %.*s", data->username.lenstring.len, data->username.lenstring.data);
 181              		.loc 1 52 3 is_stmt 1 view .LVU32
  52:Core/Src/MQTTFormat.c **** 				", user name %.*s", data->username.lenstring.len, data->username.lenstring.data);
 182              		.loc 1 52 15 is_stmt 0 view .LVU33
 183 006a 0092     		str	r2, [sp]
 184 006c 094A     		ldr	r2, .L12+8
 185 006e 791B     		subs	r1, r7, r5
 186 0070 7019     		adds	r0, r6, r5
 187 0072 FFF7FEFF 		bl	snprintf
 188              	.LVL12:
  52:Core/Src/MQTTFormat.c **** 				", user name %.*s", data->username.lenstring.len, data->username.lenstring.data);
 189              		.loc 1 52 12 view .LVU34
 190 0076 0544     		add	r5, r5, r0
 191              	.LVL13:
  52:Core/Src/MQTTFormat.c **** 				", user name %.*s", data->username.lenstring.len, data->username.lenstring.data);
 192              		.loc 1 52 12 view .LVU35
 193 0078 DBE7     		b	.L6
 194              	.L11:
  55:Core/Src/MQTTFormat.c **** 				", password %.*s", data->password.lenstring.len, data->password.lenstring.data);
 195              		.loc 1 55 3 is_stmt 1 view .LVU36
ARM GAS  C:\Users\dung\AppData\Local\Temp\ccSZjXau.s 			page 6


  55:Core/Src/MQTTFormat.c **** 				", password %.*s", data->password.lenstring.len, data->password.lenstring.data);
 196              		.loc 1 55 15 is_stmt 0 view .LVU37
 197 007a 0092     		str	r2, [sp]
 198 007c 064A     		ldr	r2, .L12+12
 199 007e 791B     		subs	r1, r7, r5
 200 0080 7019     		adds	r0, r6, r5
 201 0082 FFF7FEFF 		bl	snprintf
 202              	.LVL14:
  55:Core/Src/MQTTFormat.c **** 				", password %.*s", data->password.lenstring.len, data->password.lenstring.data);
 203              		.loc 1 55 12 view .LVU38
 204 0086 0544     		add	r5, r5, r0
 205              	.LVL15:
  57:Core/Src/MQTTFormat.c **** }
 206              		.loc 1 57 2 is_stmt 1 view .LVU39
  57:Core/Src/MQTTFormat.c **** }
 207              		.loc 1 57 9 is_stmt 0 view .LVU40
 208 0088 D8E7     		b	.L4
 209              	.L13:
 210 008a 00BF     		.align	2
 211              	.L12:
 212 008c 00000000 		.word	.LC0
 213 0090 4C000000 		.word	.LC1
 214 0094 90000000 		.word	.LC2
 215 0098 A4000000 		.word	.LC3
 216              		.cfi_endproc
 217              	.LFE4:
 219              		.section	.rodata.MQTTStringFormat_connack.str1.4,"aMS",%progbits,1
 220              		.align	2
 221              	.LC4:
 222 0000 434F4E4E 		.ascii	"CONNACK session present %d, rc %d\000"
 222      41434B20 
 222      73657373 
 222      696F6E20 
 222      70726573 
 223              		.section	.text.MQTTStringFormat_connack,"ax",%progbits
 224              		.align	1
 225              		.global	MQTTStringFormat_connack
 226              		.syntax unified
 227              		.thumb
 228              		.thumb_func
 230              	MQTTStringFormat_connack:
 231              	.LVL16:
 232              	.LFB5:
  59:Core/Src/MQTTFormat.c **** 
  60:Core/Src/MQTTFormat.c **** 
  61:Core/Src/MQTTFormat.c **** int MQTTStringFormat_connack(char* strbuf, int strbuflen, unsigned char connack_rc, unsigned char s
  62:Core/Src/MQTTFormat.c **** {
 233              		.loc 1 62 1 is_stmt 1 view -0
 234              		.cfi_startproc
 235              		@ args = 0, pretend = 0, frame = 0
 236              		@ frame_needed = 0, uses_anonymous_args = 0
 237              		.loc 1 62 1 is_stmt 0 view .LVU42
 238 0000 00B5     		push	{lr}
 239              	.LCFI4:
 240              		.cfi_def_cfa_offset 4
 241              		.cfi_offset 14, -4
 242 0002 83B0     		sub	sp, sp, #12
ARM GAS  C:\Users\dung\AppData\Local\Temp\ccSZjXau.s 			page 7


 243              	.LCFI5:
 244              		.cfi_def_cfa_offset 16
  63:Core/Src/MQTTFormat.c **** 	int strindex = snprintf(strbuf, strbuflen, "CONNACK session present %d, rc %d", sessionPresent, co
 245              		.loc 1 63 2 is_stmt 1 view .LVU43
 246              		.loc 1 63 17 is_stmt 0 view .LVU44
 247 0004 0092     		str	r2, [sp]
 248 0006 034A     		ldr	r2, .L16
 249              	.LVL17:
 250              		.loc 1 63 17 view .LVU45
 251 0008 FFF7FEFF 		bl	snprintf
 252              	.LVL18:
  64:Core/Src/MQTTFormat.c **** 	return strindex;
 253              		.loc 1 64 2 is_stmt 1 view .LVU46
  65:Core/Src/MQTTFormat.c **** }
 254              		.loc 1 65 1 is_stmt 0 view .LVU47
 255 000c 03B0     		add	sp, sp, #12
 256              	.LCFI6:
 257              		.cfi_def_cfa_offset 4
 258              		@ sp needed
 259 000e 5DF804FB 		ldr	pc, [sp], #4
 260              	.L17:
 261 0012 00BF     		.align	2
 262              	.L16:
 263 0014 00000000 		.word	.LC4
 264              		.cfi_endproc
 265              	.LFE5:
 267              		.section	.rodata.MQTTStringFormat_publish.str1.4,"aMS",%progbits,1
 268              		.align	2
 269              	.LC5:
 270 0000 5055424C 		.ascii	"PUBLISH dup %d, QoS %d, retained %d, packet id %d, "
 270      49534820 
 270      64757020 
 270      25642C20 
 270      516F5320 
 271 0033 746F7069 		.ascii	"topic %.*s, payload length %d, payload %.*s\000"
 271      6320252E 
 271      2A732C20 
 271      7061796C 
 271      6F616420 
 272              		.section	.text.MQTTStringFormat_publish,"ax",%progbits
 273              		.align	1
 274              		.global	MQTTStringFormat_publish
 275              		.syntax unified
 276              		.thumb
 277              		.thumb_func
 279              	MQTTStringFormat_publish:
 280              	.LVL19:
 281              	.LFB6:
  66:Core/Src/MQTTFormat.c **** 
  67:Core/Src/MQTTFormat.c **** 
  68:Core/Src/MQTTFormat.c **** int MQTTStringFormat_publish(char* strbuf, int strbuflen, unsigned char dup, int qos, unsigned char
  69:Core/Src/MQTTFormat.c **** 		unsigned short packetid, MQTTString topicName, unsigned char* payload, int payloadlen)
  70:Core/Src/MQTTFormat.c **** {
 282              		.loc 1 70 1 is_stmt 1 view -0
 283              		.cfi_startproc
 284              		@ args = 28, pretend = 0, frame = 0
 285              		@ frame_needed = 0, uses_anonymous_args = 0
ARM GAS  C:\Users\dung\AppData\Local\Temp\ccSZjXau.s 			page 8


 286              		.loc 1 70 1 is_stmt 0 view .LVU49
 287 0000 30B5     		push	{r4, r5, lr}
 288              	.LCFI7:
 289              		.cfi_def_cfa_offset 12
 290              		.cfi_offset 4, -12
 291              		.cfi_offset 5, -8
 292              		.cfi_offset 14, -4
 293 0002 89B0     		sub	sp, sp, #36
 294              	.LCFI8:
 295              		.cfi_def_cfa_offset 48
 296 0004 129C     		ldr	r4, [sp, #72]
  71:Core/Src/MQTTFormat.c **** 	int strindex = snprintf(strbuf, strbuflen,
 297              		.loc 1 71 2 is_stmt 1 view .LVU50
 298              		.loc 1 71 17 is_stmt 0 view .LVU51
 299 0006 119D     		ldr	r5, [sp, #68]
 300 0008 0795     		str	r5, [sp, #28]
 301 000a 2546     		mov	r5, r4
 302 000c 142C     		cmp	r4, #20
 303 000e A8BF     		it	ge
 304 0010 1425     		movge	r5, #20
 305 0012 0695     		str	r5, [sp, #24]
 306 0014 0594     		str	r4, [sp, #20]
 307 0016 109C     		ldr	r4, [sp, #64]
 308 0018 0494     		str	r4, [sp, #16]
 309 001a 0F9C     		ldr	r4, [sp, #60]
 310 001c 142C     		cmp	r4, #20
 311 001e A8BF     		it	ge
 312 0020 1424     		movge	r4, #20
 313 0022 0394     		str	r4, [sp, #12]
 314 0024 BDF83440 		ldrh	r4, [sp, #52]
 315 0028 0294     		str	r4, [sp, #8]
 316 002a 9DF83040 		ldrb	r4, [sp, #48]	@ zero_extendqisi2
 317 002e 0194     		str	r4, [sp, #4]
 318 0030 0093     		str	r3, [sp]
 319 0032 1346     		mov	r3, r2
 320              	.LVL20:
 321              		.loc 1 71 17 view .LVU52
 322 0034 024A     		ldr	r2, .L20
 323              	.LVL21:
 324              		.loc 1 71 17 view .LVU53
 325 0036 FFF7FEFF 		bl	snprintf
 326              	.LVL22:
  72:Core/Src/MQTTFormat.c **** 				"PUBLISH dup %d, QoS %d, retained %d, packet id %d, topic %.*s, payload length %d, payload %.*s
  73:Core/Src/MQTTFormat.c **** 				dup, qos, retained, packetid,
  74:Core/Src/MQTTFormat.c **** 				(topicName.lenstring.len < 20) ? topicName.lenstring.len : 20, topicName.lenstring.data,
  75:Core/Src/MQTTFormat.c **** 				payloadlen, (payloadlen < 20) ? payloadlen : 20, payload);
  76:Core/Src/MQTTFormat.c **** 	return strindex;
 327              		.loc 1 76 2 is_stmt 1 view .LVU54
  77:Core/Src/MQTTFormat.c **** }
 328              		.loc 1 77 1 is_stmt 0 view .LVU55
 329 003a 09B0     		add	sp, sp, #36
 330              	.LCFI9:
 331              		.cfi_def_cfa_offset 12
 332              		@ sp needed
 333 003c 30BD     		pop	{r4, r5, pc}
 334              	.LVL23:
 335              	.L21:
ARM GAS  C:\Users\dung\AppData\Local\Temp\ccSZjXau.s 			page 9


 336              		.loc 1 77 1 view .LVU56
 337 003e 00BF     		.align	2
 338              	.L20:
 339 0040 00000000 		.word	.LC5
 340              		.cfi_endproc
 341              	.LFE6:
 343              		.section	.rodata.MQTTStringFormat_ack.str1.4,"aMS",%progbits,1
 344              		.align	2
 345              	.LC6:
 346 0000 25732C20 		.ascii	"%s, packet id %d\000"
 346      7061636B 
 346      65742069 
 346      64202564 
 346      00
 347 0011 000000   		.align	2
 348              	.LC7:
 349 0014 2C206475 		.ascii	", dup %d\000"
 349      70202564 
 349      00
 350              		.section	.text.MQTTStringFormat_ack,"ax",%progbits
 351              		.align	1
 352              		.global	MQTTStringFormat_ack
 353              		.syntax unified
 354              		.thumb
 355              		.thumb_func
 357              	MQTTStringFormat_ack:
 358              	.LVL24:
 359              	.LFB7:
  78:Core/Src/MQTTFormat.c **** 
  79:Core/Src/MQTTFormat.c **** 
  80:Core/Src/MQTTFormat.c **** int MQTTStringFormat_ack(char* strbuf, int strbuflen, unsigned char packettype, unsigned char dup, 
  81:Core/Src/MQTTFormat.c **** {
 360              		.loc 1 81 1 is_stmt 1 view -0
 361              		.cfi_startproc
 362              		@ args = 4, pretend = 0, frame = 0
 363              		@ frame_needed = 0, uses_anonymous_args = 0
 364              		.loc 1 81 1 is_stmt 0 view .LVU58
 365 0000 F0B5     		push	{r4, r5, r6, r7, lr}
 366              	.LCFI10:
 367              		.cfi_def_cfa_offset 20
 368              		.cfi_offset 4, -20
 369              		.cfi_offset 5, -16
 370              		.cfi_offset 6, -12
 371              		.cfi_offset 7, -8
 372              		.cfi_offset 14, -4
 373 0002 83B0     		sub	sp, sp, #12
 374              	.LCFI11:
 375              		.cfi_def_cfa_offset 32
 376 0004 0646     		mov	r6, r0
 377 0006 0F46     		mov	r7, r1
 378 0008 1D46     		mov	r5, r3
  82:Core/Src/MQTTFormat.c **** 	int strindex = snprintf(strbuf, strbuflen, "%s, packet id %d", MQTTPacket_names[packettype], packe
 379              		.loc 1 82 2 is_stmt 1 view .LVU59
 380              		.loc 1 82 17 is_stmt 0 view .LVU60
 381 000a BDF82030 		ldrh	r3, [sp, #32]
 382              	.LVL25:
 383              		.loc 1 82 17 view .LVU61
ARM GAS  C:\Users\dung\AppData\Local\Temp\ccSZjXau.s 			page 10


 384 000e 0093     		str	r3, [sp]
 385 0010 094B     		ldr	r3, .L26
 386 0012 53F82230 		ldr	r3, [r3, r2, lsl #2]
 387 0016 094A     		ldr	r2, .L26+4
 388              	.LVL26:
 389              		.loc 1 82 17 view .LVU62
 390 0018 FFF7FEFF 		bl	snprintf
 391              	.LVL27:
 392              		.loc 1 82 17 view .LVU63
 393 001c 0446     		mov	r4, r0
 394              	.LVL28:
  83:Core/Src/MQTTFormat.c **** 	if (dup)
 395              		.loc 1 83 2 is_stmt 1 view .LVU64
 396              		.loc 1 83 5 is_stmt 0 view .LVU65
 397 001e 15B9     		cbnz	r5, .L25
 398              	.LVL29:
 399              	.L22:
  84:Core/Src/MQTTFormat.c **** 		strindex += snprintf(strbuf + strindex, strbuflen - strindex, ", dup %d", dup);
  85:Core/Src/MQTTFormat.c **** 	return strindex;
  86:Core/Src/MQTTFormat.c **** }
 400              		.loc 1 86 1 view .LVU66
 401 0020 2046     		mov	r0, r4
 402 0022 03B0     		add	sp, sp, #12
 403              	.LCFI12:
 404              		.cfi_remember_state
 405              		.cfi_def_cfa_offset 20
 406              		@ sp needed
 407 0024 F0BD     		pop	{r4, r5, r6, r7, pc}
 408              	.LVL30:
 409              	.L25:
 410              	.LCFI13:
 411              		.cfi_restore_state
  84:Core/Src/MQTTFormat.c **** 		strindex += snprintf(strbuf + strindex, strbuflen - strindex, ", dup %d", dup);
 412              		.loc 1 84 3 is_stmt 1 view .LVU67
  84:Core/Src/MQTTFormat.c **** 		strindex += snprintf(strbuf + strindex, strbuflen - strindex, ", dup %d", dup);
 413              		.loc 1 84 15 is_stmt 0 view .LVU68
 414 0026 2B46     		mov	r3, r5
 415 0028 054A     		ldr	r2, .L26+8
 416 002a 391A     		subs	r1, r7, r0
 417 002c 3018     		adds	r0, r6, r0
 418              	.LVL31:
  84:Core/Src/MQTTFormat.c **** 		strindex += snprintf(strbuf + strindex, strbuflen - strindex, ", dup %d", dup);
 419              		.loc 1 84 15 view .LVU69
 420 002e FFF7FEFF 		bl	snprintf
 421              	.LVL32:
  84:Core/Src/MQTTFormat.c **** 		strindex += snprintf(strbuf + strindex, strbuflen - strindex, ", dup %d", dup);
 422              		.loc 1 84 12 view .LVU70
 423 0032 0444     		add	r4, r4, r0
 424              	.LVL33:
  85:Core/Src/MQTTFormat.c **** }
 425              		.loc 1 85 2 is_stmt 1 view .LVU71
  85:Core/Src/MQTTFormat.c **** }
 426              		.loc 1 85 9 is_stmt 0 view .LVU72
 427 0034 F4E7     		b	.L22
 428              	.L27:
 429 0036 00BF     		.align	2
 430              	.L26:
ARM GAS  C:\Users\dung\AppData\Local\Temp\ccSZjXau.s 			page 11


 431 0038 00000000 		.word	.LANCHOR0
 432 003c 00000000 		.word	.LC6
 433 0040 14000000 		.word	.LC7
 434              		.cfi_endproc
 435              	.LFE7:
 437              		.section	.rodata.MQTTStringFormat_subscribe.str1.4,"aMS",%progbits,1
 438              		.align	2
 439              	.LC8:
 440 0000 53554253 		.ascii	"SUBSCRIBE dup %d, packet id %d count %d topic %.*s "
 440      43524942 
 440      45206475 
 440      70202564 
 440      2C207061 
 441 0033 716F7320 		.ascii	"qos %d\000"
 441      256400
 442              		.section	.text.MQTTStringFormat_subscribe,"ax",%progbits
 443              		.align	1
 444              		.global	MQTTStringFormat_subscribe
 445              		.syntax unified
 446              		.thumb
 447              		.thumb_func
 449              	MQTTStringFormat_subscribe:
 450              	.LVL34:
 451              	.LFB8:
  87:Core/Src/MQTTFormat.c **** 
  88:Core/Src/MQTTFormat.c **** 
  89:Core/Src/MQTTFormat.c **** int MQTTStringFormat_subscribe(char* strbuf, int strbuflen, unsigned char dup, unsigned short packe
  90:Core/Src/MQTTFormat.c **** 		MQTTString topicFilters[], int requestedQoSs[])
  91:Core/Src/MQTTFormat.c **** {
 452              		.loc 1 91 1 is_stmt 1 view -0
 453              		.cfi_startproc
 454              		@ args = 12, pretend = 0, frame = 0
 455              		@ frame_needed = 0, uses_anonymous_args = 0
 456              		.loc 1 91 1 is_stmt 0 view .LVU74
 457 0000 30B5     		push	{r4, r5, lr}
 458              	.LCFI14:
 459              		.cfi_def_cfa_offset 12
 460              		.cfi_offset 4, -12
 461              		.cfi_offset 5, -8
 462              		.cfi_offset 14, -4
 463 0002 87B0     		sub	sp, sp, #28
 464              	.LCFI15:
 465              		.cfi_def_cfa_offset 40
 466 0004 0B9C     		ldr	r4, [sp, #44]
  92:Core/Src/MQTTFormat.c **** 	return snprintf(strbuf, strbuflen,
 467              		.loc 1 92 2 is_stmt 1 view .LVU75
 468              		.loc 1 92 9 is_stmt 0 view .LVU76
 469 0006 0C9D     		ldr	r5, [sp, #48]
 470 0008 2D68     		ldr	r5, [r5]
 471 000a 0495     		str	r5, [sp, #16]
 472 000c A568     		ldr	r5, [r4, #8]
 473 000e 0395     		str	r5, [sp, #12]
 474 0010 6468     		ldr	r4, [r4, #4]
 475 0012 0294     		str	r4, [sp, #8]
 476 0014 0A9C     		ldr	r4, [sp, #40]
 477 0016 0194     		str	r4, [sp, #4]
 478 0018 0093     		str	r3, [sp]
ARM GAS  C:\Users\dung\AppData\Local\Temp\ccSZjXau.s 			page 12


 479 001a 1346     		mov	r3, r2
 480              	.LVL35:
 481              		.loc 1 92 9 view .LVU77
 482 001c 024A     		ldr	r2, .L30
 483              	.LVL36:
 484              		.loc 1 92 9 view .LVU78
 485 001e FFF7FEFF 		bl	snprintf
 486              	.LVL37:
  93:Core/Src/MQTTFormat.c **** 		"SUBSCRIBE dup %d, packet id %d count %d topic %.*s qos %d",
  94:Core/Src/MQTTFormat.c **** 		dup, packetid, count,
  95:Core/Src/MQTTFormat.c **** 		topicFilters[0].lenstring.len, topicFilters[0].lenstring.data,
  96:Core/Src/MQTTFormat.c **** 		requestedQoSs[0]);
  97:Core/Src/MQTTFormat.c **** }
 487              		.loc 1 97 1 view .LVU79
 488 0022 07B0     		add	sp, sp, #28
 489              	.LCFI16:
 490              		.cfi_def_cfa_offset 12
 491              		@ sp needed
 492 0024 30BD     		pop	{r4, r5, pc}
 493              	.LVL38:
 494              	.L31:
 495              		.loc 1 97 1 view .LVU80
 496 0026 00BF     		.align	2
 497              	.L30:
 498 0028 00000000 		.word	.LC8
 499              		.cfi_endproc
 500              	.LFE8:
 502              		.section	.rodata.MQTTStringFormat_suback.str1.4,"aMS",%progbits,1
 503              		.align	2
 504              	.LC9:
 505 0000 53554241 		.ascii	"SUBACK packet id %d count %d granted qos %d\000"
 505      434B2070 
 505      61636B65 
 505      74206964 
 505      20256420 
 506              		.section	.text.MQTTStringFormat_suback,"ax",%progbits
 507              		.align	1
 508              		.global	MQTTStringFormat_suback
 509              		.syntax unified
 510              		.thumb
 511              		.thumb_func
 513              	MQTTStringFormat_suback:
 514              	.LVL39:
 515              	.LFB9:
  98:Core/Src/MQTTFormat.c **** 
  99:Core/Src/MQTTFormat.c **** 
 100:Core/Src/MQTTFormat.c **** int MQTTStringFormat_suback(char* strbuf, int strbuflen, unsigned short packetid, int count, int* g
 101:Core/Src/MQTTFormat.c **** {
 516              		.loc 1 101 1 is_stmt 1 view -0
 517              		.cfi_startproc
 518              		@ args = 4, pretend = 0, frame = 0
 519              		@ frame_needed = 0, uses_anonymous_args = 0
 520              		.loc 1 101 1 is_stmt 0 view .LVU82
 521 0000 10B5     		push	{r4, lr}
 522              	.LCFI17:
 523              		.cfi_def_cfa_offset 8
 524              		.cfi_offset 4, -8
ARM GAS  C:\Users\dung\AppData\Local\Temp\ccSZjXau.s 			page 13


 525              		.cfi_offset 14, -4
 526 0002 82B0     		sub	sp, sp, #8
 527              	.LCFI18:
 528              		.cfi_def_cfa_offset 16
 102:Core/Src/MQTTFormat.c **** 	return snprintf(strbuf, strbuflen,
 529              		.loc 1 102 2 is_stmt 1 view .LVU83
 530              		.loc 1 102 9 is_stmt 0 view .LVU84
 531 0004 049C     		ldr	r4, [sp, #16]
 532 0006 2468     		ldr	r4, [r4]
 533 0008 0194     		str	r4, [sp, #4]
 534 000a 0093     		str	r3, [sp]
 535 000c 1346     		mov	r3, r2
 536              	.LVL40:
 537              		.loc 1 102 9 view .LVU85
 538 000e 024A     		ldr	r2, .L34
 539              	.LVL41:
 540              		.loc 1 102 9 view .LVU86
 541 0010 FFF7FEFF 		bl	snprintf
 542              	.LVL42:
 103:Core/Src/MQTTFormat.c **** 		"SUBACK packet id %d count %d granted qos %d", packetid, count, grantedQoSs[0]);
 104:Core/Src/MQTTFormat.c **** }
 543              		.loc 1 104 1 view .LVU87
 544 0014 02B0     		add	sp, sp, #8
 545              	.LCFI19:
 546              		.cfi_def_cfa_offset 8
 547              		@ sp needed
 548 0016 10BD     		pop	{r4, pc}
 549              	.LVL43:
 550              	.L35:
 551              		.loc 1 104 1 view .LVU88
 552              		.align	2
 553              	.L34:
 554 0018 00000000 		.word	.LC9
 555              		.cfi_endproc
 556              	.LFE9:
 558              		.section	.rodata.MQTTStringFormat_unsubscribe.str1.4,"aMS",%progbits,1
 559              		.align	2
 560              	.LC10:
 561 0000 554E5355 		.ascii	"UNSUBSCRIBE dup %d, packet id %d count %d topic %.*"
 561      42534352 
 561      49424520 
 561      64757020 
 561      25642C20 
 562 0033 7300     		.ascii	"s\000"
 563              		.section	.text.MQTTStringFormat_unsubscribe,"ax",%progbits
 564              		.align	1
 565              		.global	MQTTStringFormat_unsubscribe
 566              		.syntax unified
 567              		.thumb
 568              		.thumb_func
 570              	MQTTStringFormat_unsubscribe:
 571              	.LVL44:
 572              	.LFB10:
 105:Core/Src/MQTTFormat.c **** 
 106:Core/Src/MQTTFormat.c **** 
 107:Core/Src/MQTTFormat.c **** int MQTTStringFormat_unsubscribe(char* strbuf, int strbuflen, unsigned char dup, unsigned short pac
 108:Core/Src/MQTTFormat.c **** 		int count, MQTTString topicFilters[])
ARM GAS  C:\Users\dung\AppData\Local\Temp\ccSZjXau.s 			page 14


 109:Core/Src/MQTTFormat.c **** {
 573              		.loc 1 109 1 is_stmt 1 view -0
 574              		.cfi_startproc
 575              		@ args = 8, pretend = 0, frame = 0
 576              		@ frame_needed = 0, uses_anonymous_args = 0
 577              		.loc 1 109 1 is_stmt 0 view .LVU90
 578 0000 10B5     		push	{r4, lr}
 579              	.LCFI20:
 580              		.cfi_def_cfa_offset 8
 581              		.cfi_offset 4, -8
 582              		.cfi_offset 14, -4
 583 0002 84B0     		sub	sp, sp, #16
 584              	.LCFI21:
 585              		.cfi_def_cfa_offset 24
 586 0004 079C     		ldr	r4, [sp, #28]
 110:Core/Src/MQTTFormat.c **** 	return snprintf(strbuf, strbuflen,
 587              		.loc 1 110 2 is_stmt 1 view .LVU91
 588              		.loc 1 110 9 is_stmt 0 view .LVU92
 589 0006 D4F808C0 		ldr	ip, [r4, #8]
 590 000a CDF80CC0 		str	ip, [sp, #12]
 591 000e 6468     		ldr	r4, [r4, #4]
 592 0010 0294     		str	r4, [sp, #8]
 593 0012 069C     		ldr	r4, [sp, #24]
 594 0014 0194     		str	r4, [sp, #4]
 595 0016 0093     		str	r3, [sp]
 596 0018 1346     		mov	r3, r2
 597              	.LVL45:
 598              		.loc 1 110 9 view .LVU93
 599 001a 024A     		ldr	r2, .L38
 600              	.LVL46:
 601              		.loc 1 110 9 view .LVU94
 602 001c FFF7FEFF 		bl	snprintf
 603              	.LVL47:
 111:Core/Src/MQTTFormat.c **** 					"UNSUBSCRIBE dup %d, packet id %d count %d topic %.*s",
 112:Core/Src/MQTTFormat.c **** 					dup, packetid, count,
 113:Core/Src/MQTTFormat.c **** 					topicFilters[0].lenstring.len, topicFilters[0].lenstring.data);
 114:Core/Src/MQTTFormat.c **** }
 604              		.loc 1 114 1 view .LVU95
 605 0020 04B0     		add	sp, sp, #16
 606              	.LCFI22:
 607              		.cfi_def_cfa_offset 8
 608              		@ sp needed
 609 0022 10BD     		pop	{r4, pc}
 610              	.LVL48:
 611              	.L39:
 612              		.loc 1 114 1 view .LVU96
 613              		.align	2
 614              	.L38:
 615 0024 00000000 		.word	.LC10
 616              		.cfi_endproc
 617              	.LFE10:
 619              		.global	MQTTPacket_names
 620              		.section	.rodata.str1.4,"aMS",%progbits,1
 621              		.align	2
 622              	.LC11:
 623 0000 52455345 		.ascii	"RESERVED\000"
 623      52564544 
ARM GAS  C:\Users\dung\AppData\Local\Temp\ccSZjXau.s 			page 15


 623      00
 624 0009 000000   		.align	2
 625              	.LC12:
 626 000c 434F4E4E 		.ascii	"CONNECT\000"
 626      45435400 
 627              		.align	2
 628              	.LC13:
 629 0014 434F4E4E 		.ascii	"CONNACK\000"
 629      41434B00 
 630              		.align	2
 631              	.LC14:
 632 001c 5055424C 		.ascii	"PUBLISH\000"
 632      49534800 
 633              		.align	2
 634              	.LC15:
 635 0024 50554241 		.ascii	"PUBACK\000"
 635      434B00
 636 002b 00       		.align	2
 637              	.LC16:
 638 002c 50554252 		.ascii	"PUBREC\000"
 638      454300
 639 0033 00       		.align	2
 640              	.LC17:
 641 0034 50554252 		.ascii	"PUBREL\000"
 641      454C00
 642 003b 00       		.align	2
 643              	.LC18:
 644 003c 50554243 		.ascii	"PUBCOMP\000"
 644      4F4D5000 
 645              		.align	2
 646              	.LC19:
 647 0044 53554253 		.ascii	"SUBSCRIBE\000"
 647      43524942 
 647      4500
 648 004e 0000     		.align	2
 649              	.LC20:
 650 0050 53554241 		.ascii	"SUBACK\000"
 650      434B00
 651 0057 00       		.align	2
 652              	.LC21:
 653 0058 554E5355 		.ascii	"UNSUBSCRIBE\000"
 653      42534352 
 653      49424500 
 654              		.align	2
 655              	.LC22:
 656 0064 554E5355 		.ascii	"UNSUBACK\000"
 656      4241434B 
 656      00
 657 006d 000000   		.align	2
 658              	.LC23:
 659 0070 50494E47 		.ascii	"PINGREQ\000"
 659      52455100 
 660              		.align	2
 661              	.LC24:
 662 0078 50494E47 		.ascii	"PINGRESP\000"
 662      52455350 
 662      00
ARM GAS  C:\Users\dung\AppData\Local\Temp\ccSZjXau.s 			page 16


 663 0081 000000   		.align	2
 664              	.LC25:
 665 0084 44495343 		.ascii	"DISCONNECT\000"
 665      4F4E4E45 
 665      435400
 666              		.section	.data.MQTTPacket_names,"aw"
 667              		.align	2
 668              		.set	.LANCHOR0,. + 0
 671              	MQTTPacket_names:
 672 0000 00000000 		.word	.LC11
 673 0004 0C000000 		.word	.LC12
 674 0008 14000000 		.word	.LC13
 675 000c 1C000000 		.word	.LC14
 676 0010 24000000 		.word	.LC15
 677 0014 2C000000 		.word	.LC16
 678 0018 34000000 		.word	.LC17
 679 001c 3C000000 		.word	.LC18
 680 0020 44000000 		.word	.LC19
 681 0024 50000000 		.word	.LC20
 682 0028 58000000 		.word	.LC21
 683 002c 64000000 		.word	.LC22
 684 0030 70000000 		.word	.LC23
 685 0034 78000000 		.word	.LC24
 686 0038 84000000 		.word	.LC25
 687              		.text
 688              	.Letext0:
 689              		.file 2 "Core/Inc/MQTTPacket.h"
 690              		.file 3 "Core/Inc/MQTTConnect.h"
 691              		.file 4 "c:\\program files (x86)\\gcc-arm-none-eabi-10.3-2021.10-win32\\gcc-arm-none-eabi-10.3-202
ARM GAS  C:\Users\dung\AppData\Local\Temp\ccSZjXau.s 			page 17

