ARM GAS  C:\Users\dung\AppData\Local\Temp\ccb9zUxA.s 			page 1


   1              		.cpu cortex-m3
   2              		.arch armv7-m
   3              		.fpu softvfp
   4              		.eabi_attribute 20, 1
   5              		.eabi_attribute 21, 1
   6              		.eabi_attribute 23, 3
   7              		.eabi_attribute 24, 1
   8              		.eabi_attribute 25, 1
   9              		.eabi_attribute 26, 1
  10              		.eabi_attribute 30, 1
  11              		.eabi_attribute 34, 1
  12              		.eabi_attribute 18, 4
  13              		.file	"main.c"
  14              		.text
  15              	.Ltext0:
  16              		.cfi_sections	.debug_frame
  17              		.section	.text.HAL_UART_RxCpltCallback,"ax",%progbits
  18              		.align	1
  19              		.global	HAL_UART_RxCpltCallback
  20              		.syntax unified
  21              		.thumb
  22              		.thumb_func
  24              	HAL_UART_RxCpltCallback:
  25              	.LVL0:
  26              	.LFB68:
  27              		.file 1 "Core/Src/main.c"
   1:Core/Src/main.c **** /* USER CODE BEGIN Header */
   2:Core/Src/main.c **** /**
   3:Core/Src/main.c ****   ******************************************************************************
   4:Core/Src/main.c ****   * @file           : main.c
   5:Core/Src/main.c ****   * @brief          : Main program body
   6:Core/Src/main.c ****   ******************************************************************************
   7:Core/Src/main.c ****   * @attention
   8:Core/Src/main.c ****   *
   9:Core/Src/main.c ****   * <h2><center>&copy; Copyright (c) 2022 STMicroelectronics.
  10:Core/Src/main.c ****   * All rights reserved.</center></h2>
  11:Core/Src/main.c ****   *
  12:Core/Src/main.c ****   * This software component is licensed by ST under BSD 3-Clause license,
  13:Core/Src/main.c ****   * the "License"; You may not use this file except in compliance with the
  14:Core/Src/main.c ****   * License. You may obtain a copy of the License at:
  15:Core/Src/main.c ****   *                        opensource.org/licenses/BSD-3-Clause
  16:Core/Src/main.c ****   *
  17:Core/Src/main.c ****   ******************************************************************************
  18:Core/Src/main.c ****   */
  19:Core/Src/main.c **** /* USER CODE END Header */
  20:Core/Src/main.c **** /* Includes ------------------------------------------------------------------*/
  21:Core/Src/main.c **** #include "main.h"
  22:Core/Src/main.c **** #include "adc.h"
  23:Core/Src/main.c **** #include "tim.h"
  24:Core/Src/main.c **** #include "usart.h"
  25:Core/Src/main.c **** #include "gpio.h"
  26:Core/Src/main.c **** 
  27:Core/Src/main.c **** /* Private includes ----------------------------------------------------------*/
  28:Core/Src/main.c **** /* USER CODE BEGIN Includes */
  29:Core/Src/main.c **** #include <stdio.h>
  30:Core/Src/main.c **** #include <string.h>
  31:Core/Src/main.c **** #include <stdlib.h>
ARM GAS  C:\Users\dung\AppData\Local\Temp\ccb9zUxA.s 			page 2


  32:Core/Src/main.c **** #include <math.h>
  33:Core/Src/main.c **** #include "sim800c.h"
  34:Core/Src/main.c **** #include "l70.h"
  35:Core/Src/main.c **** /* USER CODE END Includes */
  36:Core/Src/main.c **** 
  37:Core/Src/main.c **** /* Private typedef -----------------------------------------------------------*/
  38:Core/Src/main.c **** /* USER CODE BEGIN PTD */
  39:Core/Src/main.c **** 
  40:Core/Src/main.c **** /* USER CODE END PTD */
  41:Core/Src/main.c **** 
  42:Core/Src/main.c **** /* Private define ------------------------------------------------------------*/
  43:Core/Src/main.c **** /* USER CODE BEGIN PD */
  44:Core/Src/main.c **** /* USER CODE END PD */
  45:Core/Src/main.c **** 
  46:Core/Src/main.c **** /* Private macro -------------------------------------------------------------*/
  47:Core/Src/main.c **** /* USER CODE BEGIN PM */
  48:Core/Src/main.c **** 
  49:Core/Src/main.c **** /* USER CODE END PM */
  50:Core/Src/main.c **** 
  51:Core/Src/main.c **** /* Private variables ---------------------------------------------------------*/
  52:Core/Src/main.c **** 
  53:Core/Src/main.c **** /* USER CODE BEGIN PV */
  54:Core/Src/main.c **** // char data[100];
  55:Core/Src/main.c **** bool SOSFlag = false;
  56:Core/Src/main.c **** char simNumber[20] = "0987035442";
  57:Core/Src/main.c **** char latData[15] = {0};
  58:Core/Src/main.c **** char longData[15] = {0};
  59:Core/Src/main.c **** char simMessage[100] = {0};
  60:Core/Src/main.c **** char *GPSResponse;
  61:Core/Src/main.c **** uint16_t ADC_value;
  62:Core/Src/main.c **** /* USER CODE END PV */
  63:Core/Src/main.c **** 
  64:Core/Src/main.c **** /* Private function prototypes -----------------------------------------------*/
  65:Core/Src/main.c **** void SystemClock_Config(void);
  66:Core/Src/main.c **** /* USER CODE BEGIN PFP */
  67:Core/Src/main.c **** 
  68:Core/Src/main.c **** /* USER CODE END PFP */
  69:Core/Src/main.c **** 
  70:Core/Src/main.c **** /* Private user code ---------------------------------------------------------*/
  71:Core/Src/main.c **** /* USER CODE BEGIN 0 */
  72:Core/Src/main.c **** 
  73:Core/Src/main.c **** void HAL_UART_RxCpltCallback(UART_HandleTypeDef *huart)
  74:Core/Src/main.c **** {
  28              		.loc 1 74 1 view -0
  29              		.cfi_startproc
  30              		@ args = 0, pretend = 0, frame = 0
  31              		@ frame_needed = 0, uses_anonymous_args = 0
  32              		.loc 1 74 1 is_stmt 0 view .LVU1
  33 0000 10B5     		push	{r4, lr}
  34              	.LCFI0:
  35              		.cfi_def_cfa_offset 8
  36              		.cfi_offset 4, -8
  37              		.cfi_offset 14, -4
  38 0002 0446     		mov	r4, r0
  75:Core/Src/main.c ****   if(huart == &huart2)
  39              		.loc 1 75 3 is_stmt 1 view .LVU2
  40              		.loc 1 75 5 is_stmt 0 view .LVU3
ARM GAS  C:\Users\dung\AppData\Local\Temp\ccb9zUxA.s 			page 3


  41 0004 064B     		ldr	r3, .L7
  42 0006 9842     		cmp	r0, r3
  43 0008 03D0     		beq	.L5
  44              	.LVL1:
  45              	.L2:
  76:Core/Src/main.c ****   {
  77:Core/Src/main.c ****     sim800c_callback();
  78:Core/Src/main.c ****   }
  79:Core/Src/main.c ****   if(huart == &huart3)
  46              		.loc 1 79 3 is_stmt 1 view .LVU4
  47              		.loc 1 79 5 is_stmt 0 view .LVU5
  48 000a 064B     		ldr	r3, .L7+4
  49 000c 9C42     		cmp	r4, r3
  50 000e 03D0     		beq	.L6
  51              	.L1:
  80:Core/Src/main.c ****   {
  81:Core/Src/main.c ****     l70_callback();
  82:Core/Src/main.c ****   }
  83:Core/Src/main.c **** }
  52              		.loc 1 83 1 view .LVU6
  53 0010 10BD     		pop	{r4, pc}
  54              	.LVL2:
  55              	.L5:
  77:Core/Src/main.c ****   }
  56              		.loc 1 77 5 is_stmt 1 view .LVU7
  57 0012 FFF7FEFF 		bl	sim800c_callback
  58              	.LVL3:
  77:Core/Src/main.c ****   }
  59              		.loc 1 77 5 is_stmt 0 view .LVU8
  60 0016 F8E7     		b	.L2
  61              	.L6:
  81:Core/Src/main.c ****   }
  62              		.loc 1 81 5 is_stmt 1 view .LVU9
  63 0018 FFF7FEFF 		bl	l70_callback
  64              	.LVL4:
  65              		.loc 1 83 1 is_stmt 0 view .LVU10
  66 001c F8E7     		b	.L1
  67              	.L8:
  68 001e 00BF     		.align	2
  69              	.L7:
  70 0020 00000000 		.word	huart2
  71 0024 00000000 		.word	huart3
  72              		.cfi_endproc
  73              	.LFE68:
  75              		.section	.text.HAL_TIM_PeriodElapsedCallback,"ax",%progbits
  76              		.align	1
  77              		.global	HAL_TIM_PeriodElapsedCallback
  78              		.syntax unified
  79              		.thumb
  80              		.thumb_func
  82              	HAL_TIM_PeriodElapsedCallback:
  83              	.LVL5:
  84              	.LFB69:
  84:Core/Src/main.c **** 
  85:Core/Src/main.c **** void HAL_TIM_PeriodElapsedCallback(TIM_HandleTypeDef *htim)
  86:Core/Src/main.c **** {
  85              		.loc 1 86 1 is_stmt 1 view -0
ARM GAS  C:\Users\dung\AppData\Local\Temp\ccb9zUxA.s 			page 4


  86              		.cfi_startproc
  87              		@ args = 0, pretend = 0, frame = 0
  88              		@ frame_needed = 0, uses_anonymous_args = 0
  89              		.loc 1 86 1 is_stmt 0 view .LVU12
  90 0000 10B5     		push	{r4, lr}
  91              	.LCFI1:
  92              		.cfi_def_cfa_offset 8
  93              		.cfi_offset 4, -8
  94              		.cfi_offset 14, -4
  95 0002 0446     		mov	r4, r0
  87:Core/Src/main.c ****   if(htim == &htim2)
  96              		.loc 1 87 3 is_stmt 1 view .LVU13
  97              		.loc 1 87 5 is_stmt 0 view .LVU14
  98 0004 114B     		ldr	r3, .L15
  99 0006 9842     		cmp	r0, r3
 100 0008 03D0     		beq	.L13
 101              	.LVL6:
 102              	.L10:
  88:Core/Src/main.c ****   {
  89:Core/Src/main.c ****     sim800c_timerCallback();
  90:Core/Src/main.c ****   }
  91:Core/Src/main.c ****   if(htim == &htim1)
 103              		.loc 1 91 3 is_stmt 1 view .LVU15
 104              		.loc 1 91 5 is_stmt 0 view .LVU16
 105 000a 114B     		ldr	r3, .L15+4
 106 000c 9C42     		cmp	r4, r3
 107 000e 03D0     		beq	.L14
 108              	.LVL7:
 109              	.L9:
  92:Core/Src/main.c ****   {
  93:Core/Src/main.c ****     HAL_GPIO_WritePin(GPIOB, GPIO_PIN_4, GPIO_PIN_SET);
  94:Core/Src/main.c ****     HAL_GPIO_WritePin(GPIOB, GPIO_PIN_5, GPIO_PIN_SET);
  95:Core/Src/main.c ****     HAL_GPIO_WritePin(GPIOB, GPIO_PIN_6, GPIO_PIN_SET);
  96:Core/Src/main.c ****     HAL_GPIO_WritePin(GPIOB, GPIO_PIN_7, GPIO_PIN_SET);
  97:Core/Src/main.c ****     HAL_TIM_Base_Stop_IT(&htim1);
  98:Core/Src/main.c ****   }
  99:Core/Src/main.c **** }
 110              		.loc 1 99 1 view .LVU17
 111 0010 10BD     		pop	{r4, pc}
 112              	.LVL8:
 113              	.L13:
  89:Core/Src/main.c ****   }
 114              		.loc 1 89 5 is_stmt 1 view .LVU18
 115 0012 FFF7FEFF 		bl	sim800c_timerCallback
 116              	.LVL9:
  89:Core/Src/main.c ****   }
 117              		.loc 1 89 5 is_stmt 0 view .LVU19
 118 0016 F8E7     		b	.L10
 119              	.L14:
  93:Core/Src/main.c ****     HAL_GPIO_WritePin(GPIOB, GPIO_PIN_5, GPIO_PIN_SET);
 120              		.loc 1 93 5 is_stmt 1 view .LVU20
 121 0018 0E4C     		ldr	r4, .L15+8
 122              	.LVL10:
  93:Core/Src/main.c ****     HAL_GPIO_WritePin(GPIOB, GPIO_PIN_5, GPIO_PIN_SET);
 123              		.loc 1 93 5 is_stmt 0 view .LVU21
 124 001a 0122     		movs	r2, #1
 125 001c 1021     		movs	r1, #16
ARM GAS  C:\Users\dung\AppData\Local\Temp\ccb9zUxA.s 			page 5


 126 001e 2046     		mov	r0, r4
 127 0020 FFF7FEFF 		bl	HAL_GPIO_WritePin
 128              	.LVL11:
  94:Core/Src/main.c ****     HAL_GPIO_WritePin(GPIOB, GPIO_PIN_6, GPIO_PIN_SET);
 129              		.loc 1 94 5 is_stmt 1 view .LVU22
 130 0024 0122     		movs	r2, #1
 131 0026 2021     		movs	r1, #32
 132 0028 2046     		mov	r0, r4
 133 002a FFF7FEFF 		bl	HAL_GPIO_WritePin
 134              	.LVL12:
  95:Core/Src/main.c ****     HAL_GPIO_WritePin(GPIOB, GPIO_PIN_7, GPIO_PIN_SET);
 135              		.loc 1 95 5 view .LVU23
 136 002e 0122     		movs	r2, #1
 137 0030 4021     		movs	r1, #64
 138 0032 2046     		mov	r0, r4
 139 0034 FFF7FEFF 		bl	HAL_GPIO_WritePin
 140              	.LVL13:
  96:Core/Src/main.c ****     HAL_TIM_Base_Stop_IT(&htim1);
 141              		.loc 1 96 5 view .LVU24
 142 0038 0122     		movs	r2, #1
 143 003a 8021     		movs	r1, #128
 144 003c 2046     		mov	r0, r4
 145 003e FFF7FEFF 		bl	HAL_GPIO_WritePin
 146              	.LVL14:
  97:Core/Src/main.c ****   }
 147              		.loc 1 97 5 view .LVU25
 148 0042 0348     		ldr	r0, .L15+4
 149 0044 FFF7FEFF 		bl	HAL_TIM_Base_Stop_IT
 150              	.LVL15:
 151              		.loc 1 99 1 is_stmt 0 view .LVU26
 152 0048 E2E7     		b	.L9
 153              	.L16:
 154 004a 00BF     		.align	2
 155              	.L15:
 156 004c 00000000 		.word	htim2
 157 0050 00000000 		.word	htim1
 158 0054 000C0140 		.word	1073810432
 159              		.cfi_endproc
 160              	.LFE69:
 162              		.section	.text.HAL_GPIO_EXTI_Callback,"ax",%progbits
 163              		.align	1
 164              		.global	HAL_GPIO_EXTI_Callback
 165              		.syntax unified
 166              		.thumb
 167              		.thumb_func
 169              	HAL_GPIO_EXTI_Callback:
 170              	.LVL16:
 171              	.LFB70:
 100:Core/Src/main.c **** 
 101:Core/Src/main.c **** void HAL_GPIO_EXTI_Callback(uint16_t GPIO_Pin)
 102:Core/Src/main.c **** {
 172              		.loc 1 102 1 is_stmt 1 view -0
 173              		.cfi_startproc
 174              		@ args = 0, pretend = 0, frame = 0
 175              		@ frame_needed = 0, uses_anonymous_args = 0
 176              		.loc 1 102 1 is_stmt 0 view .LVU28
 177 0000 38B5     		push	{r3, r4, r5, lr}
ARM GAS  C:\Users\dung\AppData\Local\Temp\ccb9zUxA.s 			page 6


 178              	.LCFI2:
 179              		.cfi_def_cfa_offset 16
 180              		.cfi_offset 3, -16
 181              		.cfi_offset 4, -12
 182              		.cfi_offset 5, -8
 183              		.cfi_offset 14, -4
 184 0002 0446     		mov	r4, r0
 103:Core/Src/main.c ****   //read ADC pin
 104:Core/Src/main.c ****   if (GPIO_Pin == BUT_ADC_Pin)
 185              		.loc 1 104 3 is_stmt 1 view .LVU29
 186              		.loc 1 104 6 is_stmt 0 view .LVU30
 187 0004 0428     		cmp	r0, #4
 188 0006 05D0     		beq	.L24
 189              	.LVL17:
 190              	.L18:
 105:Core/Src/main.c ****   {
 106:Core/Src/main.c ****     ADC_value = HAL_ADC_GetValue(&hadc1);
 107:Core/Src/main.c ****     //>4.1V
 108:Core/Src/main.c ****     if (ADC_value > 3057) 
 109:Core/Src/main.c ****     {
 110:Core/Src/main.c ****       HAL_GPIO_WritePin(GPIOB, GPIO_PIN_4, GPIO_PIN_RESET);
 111:Core/Src/main.c ****       HAL_GPIO_WritePin(GPIOB, GPIO_PIN_5, GPIO_PIN_RESET);
 112:Core/Src/main.c ****       HAL_GPIO_WritePin(GPIOB, GPIO_PIN_6, GPIO_PIN_RESET);
 113:Core/Src/main.c ****       HAL_GPIO_WritePin(GPIOB, GPIO_PIN_7, GPIO_PIN_RESET);
 114:Core/Src/main.c ****     }
 115:Core/Src/main.c ****     //3.7-4.1V  
 116:Core/Src/main.c ****     if (ADC_value <= 3057 && ADC_value > 2817)    
 117:Core/Src/main.c ****     {
 118:Core/Src/main.c ****       HAL_GPIO_WritePin(GPIOB, GPIO_PIN_4, GPIO_PIN_SET);
 119:Core/Src/main.c ****       HAL_GPIO_WritePin(GPIOB, GPIO_PIN_5, GPIO_PIN_RESET);
 120:Core/Src/main.c ****       HAL_GPIO_WritePin(GPIOB, GPIO_PIN_6, GPIO_PIN_RESET);
 121:Core/Src/main.c ****       HAL_GPIO_WritePin(GPIOB, GPIO_PIN_7, GPIO_PIN_RESET);
 122:Core/Src/main.c ****     }
 123:Core/Src/main.c ****     //3.3->3.7V
 124:Core/Src/main.c ****     if (ADC_value <= 2817 && ADC_value > 2705)
 125:Core/Src/main.c ****     {
 126:Core/Src/main.c ****       HAL_GPIO_WritePin(GPIOB, GPIO_PIN_4, GPIO_PIN_SET);
 127:Core/Src/main.c ****       HAL_GPIO_WritePin(GPIOB, GPIO_PIN_5, GPIO_PIN_SET);
 128:Core/Src/main.c ****       HAL_GPIO_WritePin(GPIOB, GPIO_PIN_6, GPIO_PIN_RESET);
 129:Core/Src/main.c ****       HAL_GPIO_WritePin(GPIOB, GPIO_PIN_7, GPIO_PIN_RESET);
 130:Core/Src/main.c ****     }
 131:Core/Src/main.c ****     //0->3.3V
 132:Core/Src/main.c ****     if (ADC_value <= 2705)
 133:Core/Src/main.c ****     {
 134:Core/Src/main.c ****       HAL_GPIO_WritePin(GPIOB, GPIO_PIN_4, GPIO_PIN_SET);
 135:Core/Src/main.c ****       HAL_GPIO_WritePin(GPIOB, GPIO_PIN_5, GPIO_PIN_SET);
 136:Core/Src/main.c ****       HAL_GPIO_WritePin(GPIOB, GPIO_PIN_6, GPIO_PIN_SET);
 137:Core/Src/main.c ****       HAL_GPIO_WritePin(GPIOB, GPIO_PIN_7, GPIO_PIN_RESET);
 138:Core/Src/main.c ****     }
 139:Core/Src/main.c ****   }
 140:Core/Src/main.c ****   if (GPIO_Pin == BUT_SOS_Pin)
 191              		.loc 1 140 3 is_stmt 1 view .LVU31
 192              		.loc 1 140 6 is_stmt 0 view .LVU32
 193 0008 022C     		cmp	r4, #2
 194 000a 79D0     		beq	.L25
 195              	.L22:
 141:Core/Src/main.c ****   {
ARM GAS  C:\Users\dung\AppData\Local\Temp\ccb9zUxA.s 			page 7


 142:Core/Src/main.c ****     SOSFlag = true;
 143:Core/Src/main.c ****     HAL_GPIO_WritePin(MCU_BUZZER_GPIO_Port, MCU_BUZZER_Pin, GPIO_PIN_SET);
 144:Core/Src/main.c ****   }
 145:Core/Src/main.c ****   HAL_TIM_Base_Start_IT(&htim1);
 196              		.loc 1 145 3 is_stmt 1 view .LVU33
 197 000c 4148     		ldr	r0, .L29
 198 000e FFF7FEFF 		bl	HAL_TIM_Base_Start_IT
 199              	.LVL18:
 146:Core/Src/main.c **** }
 200              		.loc 1 146 1 is_stmt 0 view .LVU34
 201 0012 38BD     		pop	{r3, r4, r5, pc}
 202              	.LVL19:
 203              	.L24:
 106:Core/Src/main.c ****     //>4.1V
 204              		.loc 1 106 5 is_stmt 1 view .LVU35
 106:Core/Src/main.c ****     //>4.1V
 205              		.loc 1 106 17 is_stmt 0 view .LVU36
 206 0014 4048     		ldr	r0, .L29+4
 207              	.LVL20:
 106:Core/Src/main.c ****     //>4.1V
 208              		.loc 1 106 17 view .LVU37
 209 0016 FFF7FEFF 		bl	HAL_ADC_GetValue
 210              	.LVL21:
 106:Core/Src/main.c ****     //>4.1V
 211              		.loc 1 106 15 view .LVU38
 212 001a 80B2     		uxth	r0, r0
 213 001c 3F4B     		ldr	r3, .L29+8
 214 001e 1880     		strh	r0, [r3]	@ movhi
 108:Core/Src/main.c ****     {
 215              		.loc 1 108 5 is_stmt 1 view .LVU39
 108:Core/Src/main.c ****     {
 216              		.loc 1 108 8 is_stmt 0 view .LVU40
 217 0020 40F6F133 		movw	r3, #3057
 218 0024 9842     		cmp	r0, r3
 219 0026 29D8     		bhi	.L26
 220              	.L19:
 116:Core/Src/main.c ****     {
 221              		.loc 1 116 5 is_stmt 1 view .LVU41
 116:Core/Src/main.c ****     {
 222              		.loc 1 116 27 is_stmt 0 view .LVU42
 223 0028 3C4B     		ldr	r3, .L29+8
 224 002a 1B88     		ldrh	r3, [r3]
 225 002c A3F60233 		subw	r3, r3, #2818
 226 0030 9BB2     		uxth	r3, r3
 116:Core/Src/main.c ****     {
 227              		.loc 1 116 8 view .LVU43
 228 0032 EF2B     		cmp	r3, #239
 229 0034 38D9     		bls	.L27
 230              	.L20:
 124:Core/Src/main.c ****     {
 231              		.loc 1 124 5 is_stmt 1 view .LVU44
 124:Core/Src/main.c ****     {
 232              		.loc 1 124 27 is_stmt 0 view .LVU45
 233 0036 394B     		ldr	r3, .L29+8
 234 0038 1B88     		ldrh	r3, [r3]
 235 003a A3F69223 		subw	r3, r3, #2706
 236 003e 9BB2     		uxth	r3, r3
ARM GAS  C:\Users\dung\AppData\Local\Temp\ccb9zUxA.s 			page 8


 124:Core/Src/main.c ****     {
 237              		.loc 1 124 8 view .LVU46
 238 0040 6F2B     		cmp	r3, #111
 239 0042 47D9     		bls	.L28
 240              	.L21:
 132:Core/Src/main.c ****     {
 241              		.loc 1 132 5 is_stmt 1 view .LVU47
 132:Core/Src/main.c ****     {
 242              		.loc 1 132 19 is_stmt 0 view .LVU48
 243 0044 354B     		ldr	r3, .L29+8
 244 0046 1A88     		ldrh	r2, [r3]
 132:Core/Src/main.c ****     {
 245              		.loc 1 132 8 view .LVU49
 246 0048 40F69123 		movw	r3, #2705
 247 004c 9A42     		cmp	r2, r3
 248 004e DBD8     		bhi	.L18
 134:Core/Src/main.c ****       HAL_GPIO_WritePin(GPIOB, GPIO_PIN_5, GPIO_PIN_SET);
 249              		.loc 1 134 7 is_stmt 1 view .LVU50
 250 0050 334D     		ldr	r5, .L29+12
 251 0052 0122     		movs	r2, #1
 252 0054 1021     		movs	r1, #16
 253 0056 2846     		mov	r0, r5
 254 0058 FFF7FEFF 		bl	HAL_GPIO_WritePin
 255              	.LVL22:
 135:Core/Src/main.c ****       HAL_GPIO_WritePin(GPIOB, GPIO_PIN_6, GPIO_PIN_SET);
 256              		.loc 1 135 7 view .LVU51
 257 005c 0122     		movs	r2, #1
 258 005e 2021     		movs	r1, #32
 259 0060 2846     		mov	r0, r5
 260 0062 FFF7FEFF 		bl	HAL_GPIO_WritePin
 261              	.LVL23:
 136:Core/Src/main.c ****       HAL_GPIO_WritePin(GPIOB, GPIO_PIN_7, GPIO_PIN_RESET);
 262              		.loc 1 136 7 view .LVU52
 263 0066 0122     		movs	r2, #1
 264 0068 4021     		movs	r1, #64
 265 006a 2846     		mov	r0, r5
 266 006c FFF7FEFF 		bl	HAL_GPIO_WritePin
 267              	.LVL24:
 137:Core/Src/main.c ****     }
 268              		.loc 1 137 7 view .LVU53
 269 0070 0022     		movs	r2, #0
 270 0072 8021     		movs	r1, #128
 271 0074 2846     		mov	r0, r5
 272 0076 FFF7FEFF 		bl	HAL_GPIO_WritePin
 273              	.LVL25:
 274 007a C5E7     		b	.L18
 275              	.L26:
 110:Core/Src/main.c ****       HAL_GPIO_WritePin(GPIOB, GPIO_PIN_5, GPIO_PIN_RESET);
 276              		.loc 1 110 7 view .LVU54
 277 007c 284D     		ldr	r5, .L29+12
 278 007e 0022     		movs	r2, #0
 279 0080 1021     		movs	r1, #16
 280 0082 2846     		mov	r0, r5
 281 0084 FFF7FEFF 		bl	HAL_GPIO_WritePin
 282              	.LVL26:
 111:Core/Src/main.c ****       HAL_GPIO_WritePin(GPIOB, GPIO_PIN_6, GPIO_PIN_RESET);
 283              		.loc 1 111 7 view .LVU55
ARM GAS  C:\Users\dung\AppData\Local\Temp\ccb9zUxA.s 			page 9


 284 0088 0022     		movs	r2, #0
 285 008a 2021     		movs	r1, #32
 286 008c 2846     		mov	r0, r5
 287 008e FFF7FEFF 		bl	HAL_GPIO_WritePin
 288              	.LVL27:
 112:Core/Src/main.c ****       HAL_GPIO_WritePin(GPIOB, GPIO_PIN_7, GPIO_PIN_RESET);
 289              		.loc 1 112 7 view .LVU56
 290 0092 0022     		movs	r2, #0
 291 0094 4021     		movs	r1, #64
 292 0096 2846     		mov	r0, r5
 293 0098 FFF7FEFF 		bl	HAL_GPIO_WritePin
 294              	.LVL28:
 113:Core/Src/main.c ****     }
 295              		.loc 1 113 7 view .LVU57
 296 009c 0022     		movs	r2, #0
 297 009e 8021     		movs	r1, #128
 298 00a0 2846     		mov	r0, r5
 299 00a2 FFF7FEFF 		bl	HAL_GPIO_WritePin
 300              	.LVL29:
 301 00a6 BFE7     		b	.L19
 302              	.L27:
 118:Core/Src/main.c ****       HAL_GPIO_WritePin(GPIOB, GPIO_PIN_5, GPIO_PIN_RESET);
 303              		.loc 1 118 7 view .LVU58
 304 00a8 1D4D     		ldr	r5, .L29+12
 305 00aa 0122     		movs	r2, #1
 306 00ac 1021     		movs	r1, #16
 307 00ae 2846     		mov	r0, r5
 308 00b0 FFF7FEFF 		bl	HAL_GPIO_WritePin
 309              	.LVL30:
 119:Core/Src/main.c ****       HAL_GPIO_WritePin(GPIOB, GPIO_PIN_6, GPIO_PIN_RESET);
 310              		.loc 1 119 7 view .LVU59
 311 00b4 0022     		movs	r2, #0
 312 00b6 2021     		movs	r1, #32
 313 00b8 2846     		mov	r0, r5
 314 00ba FFF7FEFF 		bl	HAL_GPIO_WritePin
 315              	.LVL31:
 120:Core/Src/main.c ****       HAL_GPIO_WritePin(GPIOB, GPIO_PIN_7, GPIO_PIN_RESET);
 316              		.loc 1 120 7 view .LVU60
 317 00be 0022     		movs	r2, #0
 318 00c0 4021     		movs	r1, #64
 319 00c2 2846     		mov	r0, r5
 320 00c4 FFF7FEFF 		bl	HAL_GPIO_WritePin
 321              	.LVL32:
 121:Core/Src/main.c ****     }
 322              		.loc 1 121 7 view .LVU61
 323 00c8 0022     		movs	r2, #0
 324 00ca 8021     		movs	r1, #128
 325 00cc 2846     		mov	r0, r5
 326 00ce FFF7FEFF 		bl	HAL_GPIO_WritePin
 327              	.LVL33:
 328 00d2 B0E7     		b	.L20
 329              	.L28:
 126:Core/Src/main.c ****       HAL_GPIO_WritePin(GPIOB, GPIO_PIN_5, GPIO_PIN_SET);
 330              		.loc 1 126 7 view .LVU62
 331 00d4 124D     		ldr	r5, .L29+12
 332 00d6 0122     		movs	r2, #1
 333 00d8 1021     		movs	r1, #16
ARM GAS  C:\Users\dung\AppData\Local\Temp\ccb9zUxA.s 			page 10


 334 00da 2846     		mov	r0, r5
 335 00dc FFF7FEFF 		bl	HAL_GPIO_WritePin
 336              	.LVL34:
 127:Core/Src/main.c ****       HAL_GPIO_WritePin(GPIOB, GPIO_PIN_6, GPIO_PIN_RESET);
 337              		.loc 1 127 7 view .LVU63
 338 00e0 0122     		movs	r2, #1
 339 00e2 2021     		movs	r1, #32
 340 00e4 2846     		mov	r0, r5
 341 00e6 FFF7FEFF 		bl	HAL_GPIO_WritePin
 342              	.LVL35:
 128:Core/Src/main.c ****       HAL_GPIO_WritePin(GPIOB, GPIO_PIN_7, GPIO_PIN_RESET);
 343              		.loc 1 128 7 view .LVU64
 344 00ea 0022     		movs	r2, #0
 345 00ec 4021     		movs	r1, #64
 346 00ee 2846     		mov	r0, r5
 347 00f0 FFF7FEFF 		bl	HAL_GPIO_WritePin
 348              	.LVL36:
 129:Core/Src/main.c ****     }
 349              		.loc 1 129 7 view .LVU65
 350 00f4 0022     		movs	r2, #0
 351 00f6 8021     		movs	r1, #128
 352 00f8 2846     		mov	r0, r5
 353 00fa FFF7FEFF 		bl	HAL_GPIO_WritePin
 354              	.LVL37:
 355 00fe A1E7     		b	.L21
 356              	.L25:
 142:Core/Src/main.c ****     HAL_GPIO_WritePin(MCU_BUZZER_GPIO_Port, MCU_BUZZER_Pin, GPIO_PIN_SET);
 357              		.loc 1 142 5 view .LVU66
 142:Core/Src/main.c ****     HAL_GPIO_WritePin(MCU_BUZZER_GPIO_Port, MCU_BUZZER_Pin, GPIO_PIN_SET);
 358              		.loc 1 142 13 is_stmt 0 view .LVU67
 359 0100 0122     		movs	r2, #1
 360 0102 084B     		ldr	r3, .L29+16
 361 0104 1A70     		strb	r2, [r3]
 143:Core/Src/main.c ****   }
 362              		.loc 1 143 5 is_stmt 1 view .LVU68
 363 0106 4FF40041 		mov	r1, #32768
 364 010a 0548     		ldr	r0, .L29+12
 365 010c FFF7FEFF 		bl	HAL_GPIO_WritePin
 366              	.LVL38:
 367 0110 7CE7     		b	.L22
 368              	.L30:
 369 0112 00BF     		.align	2
 370              	.L29:
 371 0114 00000000 		.word	htim1
 372 0118 00000000 		.word	hadc1
 373 011c 00000000 		.word	.LANCHOR0
 374 0120 000C0140 		.word	1073810432
 375 0124 00000000 		.word	.LANCHOR1
 376              		.cfi_endproc
 377              	.LFE70:
 379              		.section	.text.Error_Handler,"ax",%progbits
 380              		.align	1
 381              		.global	Error_Handler
 382              		.syntax unified
 383              		.thumb
 384              		.thumb_func
 386              	Error_Handler:
ARM GAS  C:\Users\dung\AppData\Local\Temp\ccb9zUxA.s 			page 11


 387              	.LFB73:
 147:Core/Src/main.c **** 
 148:Core/Src/main.c **** /* USER CODE END 0 */
 149:Core/Src/main.c **** 
 150:Core/Src/main.c **** /**
 151:Core/Src/main.c ****   * @brief  The application entry point.
 152:Core/Src/main.c ****   * @retval int
 153:Core/Src/main.c ****   */
 154:Core/Src/main.c **** int main(void)
 155:Core/Src/main.c **** {
 156:Core/Src/main.c ****   /* USER CODE BEGIN 1 */
 157:Core/Src/main.c ****   uint32_t timeStart = 0;
 158:Core/Src/main.c ****   uint32_t timeCurrent = 0;
 159:Core/Src/main.c **** 
 160:Core/Src/main.c ****   // Test GPS Tracking
 161:Core/Src/main.c ****   // char GPSTest[4000] = {0};
 162:Core/Src/main.c ****   // int GPSTestIndex = 0;
 163:Core/Src/main.c ****   // int len = 0;
 164:Core/Src/main.c ****   /* USER CODE END 1 */
 165:Core/Src/main.c **** 
 166:Core/Src/main.c ****   /* MCU Configuration--------------------------------------------------------*/
 167:Core/Src/main.c **** 
 168:Core/Src/main.c ****   /* Reset of all peripherals, Initializes the Flash interface and the Systick. */
 169:Core/Src/main.c ****   HAL_Init();
 170:Core/Src/main.c **** 
 171:Core/Src/main.c ****   /* USER CODE BEGIN Init */
 172:Core/Src/main.c **** 
 173:Core/Src/main.c ****   /* USER CODE END Init */
 174:Core/Src/main.c **** 
 175:Core/Src/main.c ****   /* Configure the system clock */
 176:Core/Src/main.c ****   SystemClock_Config();
 177:Core/Src/main.c **** 
 178:Core/Src/main.c ****   /* USER CODE BEGIN SysInit */
 179:Core/Src/main.c **** 
 180:Core/Src/main.c ****   /* USER CODE END SysInit */
 181:Core/Src/main.c **** 
 182:Core/Src/main.c ****   /* Initialize all configured peripherals */
 183:Core/Src/main.c ****   MX_GPIO_Init();
 184:Core/Src/main.c ****   MX_ADC1_Init();
 185:Core/Src/main.c ****   MX_USART2_UART_Init();
 186:Core/Src/main.c ****   MX_USART3_UART_Init();
 187:Core/Src/main.c ****   MX_USART1_UART_Init();
 188:Core/Src/main.c ****   MX_TIM2_Init();
 189:Core/Src/main.c ****   MX_TIM1_Init();
 190:Core/Src/main.c ****   /* USER CODE BEGIN 2 */
 191:Core/Src/main.c ****   HAL_ADC_Start(&hadc1);
 192:Core/Src/main.c ****   timeStart = HAL_GetTick();
 193:Core/Src/main.c ****   while(HAL_GPIO_ReadPin(GSM_STATUS_GPIO_Port, GSM_STATUS_Pin) == GPIO_PIN_RESET)
 194:Core/Src/main.c ****   {
 195:Core/Src/main.c ****     HAL_GPIO_WritePin(GSM_PWRKEY_GPIO_Port, GSM_PWRKEY_Pin, SET);
 196:Core/Src/main.c ****     HAL_Delay(1000);
 197:Core/Src/main.c ****   }
 198:Core/Src/main.c ****   sim800c_init();
 199:Core/Src/main.c ****   HAL_Delay(100);
 200:Core/Src/main.c ****   l70_init();
 201:Core/Src/main.c ****   HAL_Delay(100);
 202:Core/Src/main.c ****   // do
ARM GAS  C:\Users\dung\AppData\Local\Temp\ccb9zUxA.s 			page 12


 203:Core/Src/main.c ****   // {
 204:Core/Src/main.c ****   //   GPSResponse = l70_receiveGPS();
 205:Core/Src/main.c ****   //   l70_handleGPS(latData, longData, GPSResponse);
 206:Core/Src/main.c ****   //   sprintf(simMessage, "https://www.google.com/maps/search/?api=1&query=%s,%s\n", latData, long
 207:Core/Src/main.c ****   //   HAL_UART_Transmit(&huart1, (uint8_t*)simMessage, 100, 200);
 208:Core/Src/main.c ****   //   HAL_Delay(5000);
 209:Core/Src/main.c ****   // } while (((strstr(latData, ".000000") != NULL) && (strstr(longData, ".000000") != NULL)));
 210:Core/Src/main.c **** 
 211:Core/Src/main.c ****   /* USER CODE END 2 */
 212:Core/Src/main.c **** 
 213:Core/Src/main.c ****   /* Infinite loop */
 214:Core/Src/main.c ****   /* USER CODE BEGIN WHILE */
 215:Core/Src/main.c ****   while(1)
 216:Core/Src/main.c ****   {
 217:Core/Src/main.c ****     /* USER CODE END WHILE */
 218:Core/Src/main.c **** 
 219:Core/Src/main.c ****     /* USER CODE BEGIN 3 */
 220:Core/Src/main.c ****     // Code chuan
 221:Core/Src/main.c ****     if(SOSFlag == true)
 222:Core/Src/main.c ****     {
 223:Core/Src/main.c ****       HAL_GPIO_WritePin(MCU_BUZZER_GPIO_Port, MCU_BUZZER_Pin, SET);
 224:Core/Src/main.c ****       timeCurrent = HAL_GetTick();
 225:Core/Src/main.c ****       if(timeCurrent - timeStart > 3000)
 226:Core/Src/main.c ****       {
 227:Core/Src/main.c ****         timeStart = timeCurrent;
 228:Core/Src/main.c ****         HAL_UART_Transmit(&huart1, (uint8_t*)"Bat dau gui tin nhan\r\n", strlen("Bat dau gui tin nh
 229:Core/Src/main.c ****         GPSResponse = l70_receiveGPS();
 230:Core/Src/main.c ****         HAL_GPIO_WritePin(MCU_BUZZER_GPIO_Port, MCU_BUZZER_Pin, RESET); 
 231:Core/Src/main.c ****         l70_handleGPS(latData, longData, GPSResponse);
 232:Core/Src/main.c ****         sprintf(simMessage, "https://www.google.com/maps/search/?api=1&query=%s,%s\n", latData, lon
 233:Core/Src/main.c ****         sim800c_sendSMS(latData, longData, simNumber, simMessage);
 234:Core/Src/main.c ****         memset(simMessage, '\0', sizeof(simMessage));
 235:Core/Src/main.c ****         SOSFlag = false;
 236:Core/Src/main.c ****       }
 237:Core/Src/main.c ****       else
 238:Core/Src/main.c ****       {
 239:Core/Src/main.c ****         HAL_UART_Transmit(&huart1, (uint8_t*)"Doi mot luc\r\n", strlen("Doi mot luc\r\n"), 100);
 240:Core/Src/main.c ****         SOSFlag = false;
 241:Core/Src/main.c ****         HAL_GPIO_WritePin(MCU_BUZZER_GPIO_Port, MCU_BUZZER_Pin, RESET); 
 242:Core/Src/main.c ****       }
 243:Core/Src/main.c ****     }
 244:Core/Src/main.c **** 
 245:Core/Src/main.c **** 
 246:Core/Src/main.c **** 
 247:Core/Src/main.c **** 
 248:Core/Src/main.c ****     // Test GPS Tracking
 249:Core/Src/main.c ****     // timeCurrent = HAL_GetTick();
 250:Core/Src/main.c ****     // if(timeCurrent - timeStart > 5000)
 251:Core/Src/main.c ****     // {
 252:Core/Src/main.c ****     //   HAL_GPIO_WritePin(MCU_BUZZER_GPIO_Port, MCU_BUZZER_Pin, SET); 
 253:Core/Src/main.c ****     //   timeStart = timeCurrent;
 254:Core/Src/main.c ****     //   GPSResponse = l70_receiveGPS();
 255:Core/Src/main.c ****     //   l70_handleGPS(latData, longData, GPSResponse);
 256:Core/Src/main.c ****     //   sprintf(simMessage, "{ lat: %s, lng: %s },\n", latData, longData);
 257:Core/Src/main.c ****     //   len = strlen(simMessage);
 258:Core/Src/main.c ****     //   memcpy(GPSTest + len * GPSTestIndex, simMessage, len);
 259:Core/Src/main.c ****     //   GPSTestIndex++;
ARM GAS  C:\Users\dung\AppData\Local\Temp\ccb9zUxA.s 			page 13


 260:Core/Src/main.c ****     //   if(GPSTestIndex == 10)
 261:Core/Src/main.c ****     //   {
 262:Core/Src/main.c ****     //     sim800c_sendSMS(latData, longData, simNumber, GPSTest);
 263:Core/Src/main.c ****     //     GPSTestIndex = 0;
 264:Core/Src/main.c ****     //   }
 265:Core/Src/main.c ****     // }
 266:Core/Src/main.c ****     // HAL_GPIO_WritePin(MCU_BUZZER_GPIO_Port, MCU_BUZZER_Pin, RESET); 
 267:Core/Src/main.c ****   }
 268:Core/Src/main.c ****   /* USER CODE END 3 */
 269:Core/Src/main.c **** }
 270:Core/Src/main.c **** 
 271:Core/Src/main.c **** /**
 272:Core/Src/main.c ****   * @brief System Clock Configuration
 273:Core/Src/main.c ****   * @retval None
 274:Core/Src/main.c ****   */
 275:Core/Src/main.c **** void SystemClock_Config(void)
 276:Core/Src/main.c **** {
 277:Core/Src/main.c ****   RCC_OscInitTypeDef RCC_OscInitStruct = {0};
 278:Core/Src/main.c ****   RCC_ClkInitTypeDef RCC_ClkInitStruct = {0};
 279:Core/Src/main.c ****   RCC_PeriphCLKInitTypeDef PeriphClkInit = {0};
 280:Core/Src/main.c **** 
 281:Core/Src/main.c ****   /** Initializes the RCC Oscillators according to the specified parameters
 282:Core/Src/main.c ****   * in the RCC_OscInitTypeDef structure.
 283:Core/Src/main.c ****   */
 284:Core/Src/main.c ****   RCC_OscInitStruct.OscillatorType = RCC_OSCILLATORTYPE_HSE;
 285:Core/Src/main.c ****   RCC_OscInitStruct.HSEState = RCC_HSE_ON;
 286:Core/Src/main.c ****   RCC_OscInitStruct.HSEPredivValue = RCC_HSE_PREDIV_DIV1;
 287:Core/Src/main.c ****   RCC_OscInitStruct.HSIState = RCC_HSI_ON;
 288:Core/Src/main.c ****   RCC_OscInitStruct.PLL.PLLState = RCC_PLL_ON;
 289:Core/Src/main.c ****   RCC_OscInitStruct.PLL.PLLSource = RCC_PLLSOURCE_HSE;
 290:Core/Src/main.c ****   RCC_OscInitStruct.PLL.PLLMUL = RCC_PLL_MUL9;
 291:Core/Src/main.c ****   if (HAL_RCC_OscConfig(&RCC_OscInitStruct) != HAL_OK)
 292:Core/Src/main.c ****   {
 293:Core/Src/main.c ****     Error_Handler();
 294:Core/Src/main.c ****   }
 295:Core/Src/main.c ****   /** Initializes the CPU, AHB and APB buses clocks
 296:Core/Src/main.c ****   */
 297:Core/Src/main.c ****   RCC_ClkInitStruct.ClockType = RCC_CLOCKTYPE_HCLK|RCC_CLOCKTYPE_SYSCLK
 298:Core/Src/main.c ****                               |RCC_CLOCKTYPE_PCLK1|RCC_CLOCKTYPE_PCLK2;
 299:Core/Src/main.c ****   RCC_ClkInitStruct.SYSCLKSource = RCC_SYSCLKSOURCE_PLLCLK;
 300:Core/Src/main.c ****   RCC_ClkInitStruct.AHBCLKDivider = RCC_SYSCLK_DIV1;
 301:Core/Src/main.c ****   RCC_ClkInitStruct.APB1CLKDivider = RCC_HCLK_DIV2;
 302:Core/Src/main.c ****   RCC_ClkInitStruct.APB2CLKDivider = RCC_HCLK_DIV1;
 303:Core/Src/main.c **** 
 304:Core/Src/main.c ****   if (HAL_RCC_ClockConfig(&RCC_ClkInitStruct, FLASH_LATENCY_2) != HAL_OK)
 305:Core/Src/main.c ****   {
 306:Core/Src/main.c ****     Error_Handler();
 307:Core/Src/main.c ****   }
 308:Core/Src/main.c ****   PeriphClkInit.PeriphClockSelection = RCC_PERIPHCLK_ADC;
 309:Core/Src/main.c ****   PeriphClkInit.AdcClockSelection = RCC_ADCPCLK2_DIV6;
 310:Core/Src/main.c ****   if (HAL_RCCEx_PeriphCLKConfig(&PeriphClkInit) != HAL_OK)
 311:Core/Src/main.c ****   {
 312:Core/Src/main.c ****     Error_Handler();
 313:Core/Src/main.c ****   }
 314:Core/Src/main.c **** }
 315:Core/Src/main.c **** 
 316:Core/Src/main.c **** /* USER CODE BEGIN 4 */
ARM GAS  C:\Users\dung\AppData\Local\Temp\ccb9zUxA.s 			page 14


 317:Core/Src/main.c **** 
 318:Core/Src/main.c **** /* USER CODE END 4 */
 319:Core/Src/main.c **** 
 320:Core/Src/main.c **** /**
 321:Core/Src/main.c ****   * @brief  This function is executed in case of error occurrence.
 322:Core/Src/main.c ****   * @retval None
 323:Core/Src/main.c ****   */
 324:Core/Src/main.c **** void Error_Handler(void)
 325:Core/Src/main.c **** {
 388              		.loc 1 325 1 view -0
 389              		.cfi_startproc
 390              		@ Volatile: function does not return.
 391              		@ args = 0, pretend = 0, frame = 0
 392              		@ frame_needed = 0, uses_anonymous_args = 0
 393              		@ link register save eliminated.
 326:Core/Src/main.c ****   /* USER CODE BEGIN Error_Handler_Debug */
 327:Core/Src/main.c ****   /* User can add his own implementation to report the HAL error return state */
 328:Core/Src/main.c ****   __disable_irq();
 394              		.loc 1 328 3 view .LVU70
 395              	.LBB4:
 396              	.LBI4:
 397              		.file 2 "Drivers/CMSIS/Include/cmsis_gcc.h"
   1:Drivers/CMSIS/Include/cmsis_gcc.h **** /**************************************************************************//**
   2:Drivers/CMSIS/Include/cmsis_gcc.h ****  * @file     cmsis_gcc.h
   3:Drivers/CMSIS/Include/cmsis_gcc.h ****  * @brief    CMSIS compiler GCC header file
   4:Drivers/CMSIS/Include/cmsis_gcc.h ****  * @version  V5.0.4
   5:Drivers/CMSIS/Include/cmsis_gcc.h ****  * @date     09. April 2018
   6:Drivers/CMSIS/Include/cmsis_gcc.h ****  ******************************************************************************/
   7:Drivers/CMSIS/Include/cmsis_gcc.h **** /*
   8:Drivers/CMSIS/Include/cmsis_gcc.h ****  * Copyright (c) 2009-2018 Arm Limited. All rights reserved.
   9:Drivers/CMSIS/Include/cmsis_gcc.h ****  *
  10:Drivers/CMSIS/Include/cmsis_gcc.h ****  * SPDX-License-Identifier: Apache-2.0
  11:Drivers/CMSIS/Include/cmsis_gcc.h ****  *
  12:Drivers/CMSIS/Include/cmsis_gcc.h ****  * Licensed under the Apache License, Version 2.0 (the License); you may
  13:Drivers/CMSIS/Include/cmsis_gcc.h ****  * not use this file except in compliance with the License.
  14:Drivers/CMSIS/Include/cmsis_gcc.h ****  * You may obtain a copy of the License at
  15:Drivers/CMSIS/Include/cmsis_gcc.h ****  *
  16:Drivers/CMSIS/Include/cmsis_gcc.h ****  * www.apache.org/licenses/LICENSE-2.0
  17:Drivers/CMSIS/Include/cmsis_gcc.h ****  *
  18:Drivers/CMSIS/Include/cmsis_gcc.h ****  * Unless required by applicable law or agreed to in writing, software
  19:Drivers/CMSIS/Include/cmsis_gcc.h ****  * distributed under the License is distributed on an AS IS BASIS, WITHOUT
  20:Drivers/CMSIS/Include/cmsis_gcc.h ****  * WARRANTIES OR CONDITIONS OF ANY KIND, either express or implied.
  21:Drivers/CMSIS/Include/cmsis_gcc.h ****  * See the License for the specific language governing permissions and
  22:Drivers/CMSIS/Include/cmsis_gcc.h ****  * limitations under the License.
  23:Drivers/CMSIS/Include/cmsis_gcc.h ****  */
  24:Drivers/CMSIS/Include/cmsis_gcc.h **** 
  25:Drivers/CMSIS/Include/cmsis_gcc.h **** #ifndef __CMSIS_GCC_H
  26:Drivers/CMSIS/Include/cmsis_gcc.h **** #define __CMSIS_GCC_H
  27:Drivers/CMSIS/Include/cmsis_gcc.h **** 
  28:Drivers/CMSIS/Include/cmsis_gcc.h **** /* ignore some GCC warnings */
  29:Drivers/CMSIS/Include/cmsis_gcc.h **** #pragma GCC diagnostic push
  30:Drivers/CMSIS/Include/cmsis_gcc.h **** #pragma GCC diagnostic ignored "-Wsign-conversion"
  31:Drivers/CMSIS/Include/cmsis_gcc.h **** #pragma GCC diagnostic ignored "-Wconversion"
  32:Drivers/CMSIS/Include/cmsis_gcc.h **** #pragma GCC diagnostic ignored "-Wunused-parameter"
  33:Drivers/CMSIS/Include/cmsis_gcc.h **** 
  34:Drivers/CMSIS/Include/cmsis_gcc.h **** /* Fallback for __has_builtin */
  35:Drivers/CMSIS/Include/cmsis_gcc.h **** #ifndef __has_builtin
ARM GAS  C:\Users\dung\AppData\Local\Temp\ccb9zUxA.s 			page 15


  36:Drivers/CMSIS/Include/cmsis_gcc.h ****   #define __has_builtin(x) (0)
  37:Drivers/CMSIS/Include/cmsis_gcc.h **** #endif
  38:Drivers/CMSIS/Include/cmsis_gcc.h **** 
  39:Drivers/CMSIS/Include/cmsis_gcc.h **** /* CMSIS compiler specific defines */
  40:Drivers/CMSIS/Include/cmsis_gcc.h **** #ifndef   __ASM
  41:Drivers/CMSIS/Include/cmsis_gcc.h ****   #define __ASM                                  __asm
  42:Drivers/CMSIS/Include/cmsis_gcc.h **** #endif
  43:Drivers/CMSIS/Include/cmsis_gcc.h **** #ifndef   __INLINE
  44:Drivers/CMSIS/Include/cmsis_gcc.h ****   #define __INLINE                               inline
  45:Drivers/CMSIS/Include/cmsis_gcc.h **** #endif
  46:Drivers/CMSIS/Include/cmsis_gcc.h **** #ifndef   __STATIC_INLINE
  47:Drivers/CMSIS/Include/cmsis_gcc.h ****   #define __STATIC_INLINE                        static inline
  48:Drivers/CMSIS/Include/cmsis_gcc.h **** #endif
  49:Drivers/CMSIS/Include/cmsis_gcc.h **** #ifndef   __STATIC_FORCEINLINE                 
  50:Drivers/CMSIS/Include/cmsis_gcc.h ****   #define __STATIC_FORCEINLINE                   __attribute__((always_inline)) static inline
  51:Drivers/CMSIS/Include/cmsis_gcc.h **** #endif                                           
  52:Drivers/CMSIS/Include/cmsis_gcc.h **** #ifndef   __NO_RETURN
  53:Drivers/CMSIS/Include/cmsis_gcc.h ****   #define __NO_RETURN                            __attribute__((__noreturn__))
  54:Drivers/CMSIS/Include/cmsis_gcc.h **** #endif
  55:Drivers/CMSIS/Include/cmsis_gcc.h **** #ifndef   __USED
  56:Drivers/CMSIS/Include/cmsis_gcc.h ****   #define __USED                                 __attribute__((used))
  57:Drivers/CMSIS/Include/cmsis_gcc.h **** #endif
  58:Drivers/CMSIS/Include/cmsis_gcc.h **** #ifndef   __WEAK
  59:Drivers/CMSIS/Include/cmsis_gcc.h ****   #define __WEAK                                 __attribute__((weak))
  60:Drivers/CMSIS/Include/cmsis_gcc.h **** #endif
  61:Drivers/CMSIS/Include/cmsis_gcc.h **** #ifndef   __PACKED
  62:Drivers/CMSIS/Include/cmsis_gcc.h ****   #define __PACKED                               __attribute__((packed, aligned(1)))
  63:Drivers/CMSIS/Include/cmsis_gcc.h **** #endif
  64:Drivers/CMSIS/Include/cmsis_gcc.h **** #ifndef   __PACKED_STRUCT
  65:Drivers/CMSIS/Include/cmsis_gcc.h ****   #define __PACKED_STRUCT                        struct __attribute__((packed, aligned(1)))
  66:Drivers/CMSIS/Include/cmsis_gcc.h **** #endif
  67:Drivers/CMSIS/Include/cmsis_gcc.h **** #ifndef   __PACKED_UNION
  68:Drivers/CMSIS/Include/cmsis_gcc.h ****   #define __PACKED_UNION                         union __attribute__((packed, aligned(1)))
  69:Drivers/CMSIS/Include/cmsis_gcc.h **** #endif
  70:Drivers/CMSIS/Include/cmsis_gcc.h **** #ifndef   __UNALIGNED_UINT32        /* deprecated */
  71:Drivers/CMSIS/Include/cmsis_gcc.h ****   #pragma GCC diagnostic push
  72:Drivers/CMSIS/Include/cmsis_gcc.h ****   #pragma GCC diagnostic ignored "-Wpacked"
  73:Drivers/CMSIS/Include/cmsis_gcc.h ****   #pragma GCC diagnostic ignored "-Wattributes"
  74:Drivers/CMSIS/Include/cmsis_gcc.h ****   struct __attribute__((packed)) T_UINT32 { uint32_t v; };
  75:Drivers/CMSIS/Include/cmsis_gcc.h ****   #pragma GCC diagnostic pop
  76:Drivers/CMSIS/Include/cmsis_gcc.h ****   #define __UNALIGNED_UINT32(x)                  (((struct T_UINT32 *)(x))->v)
  77:Drivers/CMSIS/Include/cmsis_gcc.h **** #endif
  78:Drivers/CMSIS/Include/cmsis_gcc.h **** #ifndef   __UNALIGNED_UINT16_WRITE
  79:Drivers/CMSIS/Include/cmsis_gcc.h ****   #pragma GCC diagnostic push
  80:Drivers/CMSIS/Include/cmsis_gcc.h ****   #pragma GCC diagnostic ignored "-Wpacked"
  81:Drivers/CMSIS/Include/cmsis_gcc.h ****   #pragma GCC diagnostic ignored "-Wattributes"
  82:Drivers/CMSIS/Include/cmsis_gcc.h ****   __PACKED_STRUCT T_UINT16_WRITE { uint16_t v; };
  83:Drivers/CMSIS/Include/cmsis_gcc.h ****   #pragma GCC diagnostic pop
  84:Drivers/CMSIS/Include/cmsis_gcc.h ****   #define __UNALIGNED_UINT16_WRITE(addr, val)    (void)((((struct T_UINT16_WRITE *)(void *)(addr))-
  85:Drivers/CMSIS/Include/cmsis_gcc.h **** #endif
  86:Drivers/CMSIS/Include/cmsis_gcc.h **** #ifndef   __UNALIGNED_UINT16_READ
  87:Drivers/CMSIS/Include/cmsis_gcc.h ****   #pragma GCC diagnostic push
  88:Drivers/CMSIS/Include/cmsis_gcc.h ****   #pragma GCC diagnostic ignored "-Wpacked"
  89:Drivers/CMSIS/Include/cmsis_gcc.h ****   #pragma GCC diagnostic ignored "-Wattributes"
  90:Drivers/CMSIS/Include/cmsis_gcc.h ****   __PACKED_STRUCT T_UINT16_READ { uint16_t v; };
  91:Drivers/CMSIS/Include/cmsis_gcc.h ****   #pragma GCC diagnostic pop
  92:Drivers/CMSIS/Include/cmsis_gcc.h ****   #define __UNALIGNED_UINT16_READ(addr)          (((const struct T_UINT16_READ *)(const void *)(add
ARM GAS  C:\Users\dung\AppData\Local\Temp\ccb9zUxA.s 			page 16


  93:Drivers/CMSIS/Include/cmsis_gcc.h **** #endif
  94:Drivers/CMSIS/Include/cmsis_gcc.h **** #ifndef   __UNALIGNED_UINT32_WRITE
  95:Drivers/CMSIS/Include/cmsis_gcc.h ****   #pragma GCC diagnostic push
  96:Drivers/CMSIS/Include/cmsis_gcc.h ****   #pragma GCC diagnostic ignored "-Wpacked"
  97:Drivers/CMSIS/Include/cmsis_gcc.h ****   #pragma GCC diagnostic ignored "-Wattributes"
  98:Drivers/CMSIS/Include/cmsis_gcc.h ****   __PACKED_STRUCT T_UINT32_WRITE { uint32_t v; };
  99:Drivers/CMSIS/Include/cmsis_gcc.h ****   #pragma GCC diagnostic pop
 100:Drivers/CMSIS/Include/cmsis_gcc.h ****   #define __UNALIGNED_UINT32_WRITE(addr, val)    (void)((((struct T_UINT32_WRITE *)(void *)(addr))-
 101:Drivers/CMSIS/Include/cmsis_gcc.h **** #endif
 102:Drivers/CMSIS/Include/cmsis_gcc.h **** #ifndef   __UNALIGNED_UINT32_READ
 103:Drivers/CMSIS/Include/cmsis_gcc.h ****   #pragma GCC diagnostic push
 104:Drivers/CMSIS/Include/cmsis_gcc.h ****   #pragma GCC diagnostic ignored "-Wpacked"
 105:Drivers/CMSIS/Include/cmsis_gcc.h ****   #pragma GCC diagnostic ignored "-Wattributes"
 106:Drivers/CMSIS/Include/cmsis_gcc.h ****   __PACKED_STRUCT T_UINT32_READ { uint32_t v; };
 107:Drivers/CMSIS/Include/cmsis_gcc.h ****   #pragma GCC diagnostic pop
 108:Drivers/CMSIS/Include/cmsis_gcc.h ****   #define __UNALIGNED_UINT32_READ(addr)          (((const struct T_UINT32_READ *)(const void *)(add
 109:Drivers/CMSIS/Include/cmsis_gcc.h **** #endif
 110:Drivers/CMSIS/Include/cmsis_gcc.h **** #ifndef   __ALIGNED
 111:Drivers/CMSIS/Include/cmsis_gcc.h ****   #define __ALIGNED(x)                           __attribute__((aligned(x)))
 112:Drivers/CMSIS/Include/cmsis_gcc.h **** #endif
 113:Drivers/CMSIS/Include/cmsis_gcc.h **** #ifndef   __RESTRICT
 114:Drivers/CMSIS/Include/cmsis_gcc.h ****   #define __RESTRICT                             __restrict
 115:Drivers/CMSIS/Include/cmsis_gcc.h **** #endif
 116:Drivers/CMSIS/Include/cmsis_gcc.h **** 
 117:Drivers/CMSIS/Include/cmsis_gcc.h **** 
 118:Drivers/CMSIS/Include/cmsis_gcc.h **** /* ###########################  Core Function Access  ########################### */
 119:Drivers/CMSIS/Include/cmsis_gcc.h **** /** \ingroup  CMSIS_Core_FunctionInterface
 120:Drivers/CMSIS/Include/cmsis_gcc.h ****     \defgroup CMSIS_Core_RegAccFunctions CMSIS Core Register Access Functions
 121:Drivers/CMSIS/Include/cmsis_gcc.h ****   @{
 122:Drivers/CMSIS/Include/cmsis_gcc.h ****  */
 123:Drivers/CMSIS/Include/cmsis_gcc.h **** 
 124:Drivers/CMSIS/Include/cmsis_gcc.h **** /**
 125:Drivers/CMSIS/Include/cmsis_gcc.h ****   \brief   Enable IRQ Interrupts
 126:Drivers/CMSIS/Include/cmsis_gcc.h ****   \details Enables IRQ interrupts by clearing the I-bit in the CPSR.
 127:Drivers/CMSIS/Include/cmsis_gcc.h ****            Can only be executed in Privileged modes.
 128:Drivers/CMSIS/Include/cmsis_gcc.h ****  */
 129:Drivers/CMSIS/Include/cmsis_gcc.h **** __STATIC_FORCEINLINE void __enable_irq(void)
 130:Drivers/CMSIS/Include/cmsis_gcc.h **** {
 131:Drivers/CMSIS/Include/cmsis_gcc.h ****   __ASM volatile ("cpsie i" : : : "memory");
 132:Drivers/CMSIS/Include/cmsis_gcc.h **** }
 133:Drivers/CMSIS/Include/cmsis_gcc.h **** 
 134:Drivers/CMSIS/Include/cmsis_gcc.h **** 
 135:Drivers/CMSIS/Include/cmsis_gcc.h **** /**
 136:Drivers/CMSIS/Include/cmsis_gcc.h ****   \brief   Disable IRQ Interrupts
 137:Drivers/CMSIS/Include/cmsis_gcc.h ****   \details Disables IRQ interrupts by setting the I-bit in the CPSR.
 138:Drivers/CMSIS/Include/cmsis_gcc.h ****            Can only be executed in Privileged modes.
 139:Drivers/CMSIS/Include/cmsis_gcc.h ****  */
 140:Drivers/CMSIS/Include/cmsis_gcc.h **** __STATIC_FORCEINLINE void __disable_irq(void)
 398              		.loc 2 140 27 view .LVU71
 399              	.LBB5:
 141:Drivers/CMSIS/Include/cmsis_gcc.h **** {
 142:Drivers/CMSIS/Include/cmsis_gcc.h ****   __ASM volatile ("cpsid i" : : : "memory");
 400              		.loc 2 142 3 view .LVU72
 401              		.syntax unified
 402              	@ 142 "Drivers/CMSIS/Include/cmsis_gcc.h" 1
 403 0000 72B6     		cpsid i
 404              	@ 0 "" 2
ARM GAS  C:\Users\dung\AppData\Local\Temp\ccb9zUxA.s 			page 17


 405              		.thumb
 406              		.syntax unified
 407              	.L32:
 408              	.LBE5:
 409              	.LBE4:
 329:Core/Src/main.c ****   while (1)
 410              		.loc 1 329 3 discriminator 1 view .LVU73
 330:Core/Src/main.c ****   {
 331:Core/Src/main.c ****   }
 411              		.loc 1 331 3 discriminator 1 view .LVU74
 329:Core/Src/main.c ****   while (1)
 412              		.loc 1 329 9 discriminator 1 view .LVU75
 413 0002 FEE7     		b	.L32
 414              		.cfi_endproc
 415              	.LFE73:
 417              		.section	.text.SystemClock_Config,"ax",%progbits
 418              		.align	1
 419              		.global	SystemClock_Config
 420              		.syntax unified
 421              		.thumb
 422              		.thumb_func
 424              	SystemClock_Config:
 425              	.LFB72:
 276:Core/Src/main.c ****   RCC_OscInitTypeDef RCC_OscInitStruct = {0};
 426              		.loc 1 276 1 view -0
 427              		.cfi_startproc
 428              		@ args = 0, pretend = 0, frame = 80
 429              		@ frame_needed = 0, uses_anonymous_args = 0
 430 0000 00B5     		push	{lr}
 431              	.LCFI3:
 432              		.cfi_def_cfa_offset 4
 433              		.cfi_offset 14, -4
 434 0002 95B0     		sub	sp, sp, #84
 435              	.LCFI4:
 436              		.cfi_def_cfa_offset 88
 277:Core/Src/main.c ****   RCC_ClkInitTypeDef RCC_ClkInitStruct = {0};
 437              		.loc 1 277 3 view .LVU77
 277:Core/Src/main.c ****   RCC_ClkInitTypeDef RCC_ClkInitStruct = {0};
 438              		.loc 1 277 22 is_stmt 0 view .LVU78
 439 0004 2822     		movs	r2, #40
 440 0006 0021     		movs	r1, #0
 441 0008 0DEB0200 		add	r0, sp, r2
 442 000c FFF7FEFF 		bl	memset
 443              	.LVL39:
 278:Core/Src/main.c ****   RCC_PeriphCLKInitTypeDef PeriphClkInit = {0};
 444              		.loc 1 278 3 is_stmt 1 view .LVU79
 278:Core/Src/main.c ****   RCC_PeriphCLKInitTypeDef PeriphClkInit = {0};
 445              		.loc 1 278 22 is_stmt 0 view .LVU80
 446 0010 0023     		movs	r3, #0
 447 0012 0593     		str	r3, [sp, #20]
 448 0014 0693     		str	r3, [sp, #24]
 449 0016 0793     		str	r3, [sp, #28]
 450 0018 0893     		str	r3, [sp, #32]
 451 001a 0993     		str	r3, [sp, #36]
 279:Core/Src/main.c **** 
 452              		.loc 1 279 3 is_stmt 1 view .LVU81
 279:Core/Src/main.c **** 
ARM GAS  C:\Users\dung\AppData\Local\Temp\ccb9zUxA.s 			page 18


 453              		.loc 1 279 28 is_stmt 0 view .LVU82
 454 001c 0193     		str	r3, [sp, #4]
 455 001e 0293     		str	r3, [sp, #8]
 456 0020 0393     		str	r3, [sp, #12]
 457 0022 0493     		str	r3, [sp, #16]
 284:Core/Src/main.c ****   RCC_OscInitStruct.HSEState = RCC_HSE_ON;
 458              		.loc 1 284 3 is_stmt 1 view .LVU83
 284:Core/Src/main.c ****   RCC_OscInitStruct.HSEState = RCC_HSE_ON;
 459              		.loc 1 284 36 is_stmt 0 view .LVU84
 460 0024 0122     		movs	r2, #1
 461 0026 0A92     		str	r2, [sp, #40]
 285:Core/Src/main.c ****   RCC_OscInitStruct.HSEPredivValue = RCC_HSE_PREDIV_DIV1;
 462              		.loc 1 285 3 is_stmt 1 view .LVU85
 285:Core/Src/main.c ****   RCC_OscInitStruct.HSEPredivValue = RCC_HSE_PREDIV_DIV1;
 463              		.loc 1 285 30 is_stmt 0 view .LVU86
 464 0028 4FF48033 		mov	r3, #65536
 465 002c 0B93     		str	r3, [sp, #44]
 286:Core/Src/main.c ****   RCC_OscInitStruct.HSIState = RCC_HSI_ON;
 466              		.loc 1 286 3 is_stmt 1 view .LVU87
 287:Core/Src/main.c ****   RCC_OscInitStruct.PLL.PLLState = RCC_PLL_ON;
 467              		.loc 1 287 3 view .LVU88
 287:Core/Src/main.c ****   RCC_OscInitStruct.PLL.PLLState = RCC_PLL_ON;
 468              		.loc 1 287 30 is_stmt 0 view .LVU89
 469 002e 0E92     		str	r2, [sp, #56]
 288:Core/Src/main.c ****   RCC_OscInitStruct.PLL.PLLSource = RCC_PLLSOURCE_HSE;
 470              		.loc 1 288 3 is_stmt 1 view .LVU90
 288:Core/Src/main.c ****   RCC_OscInitStruct.PLL.PLLSource = RCC_PLLSOURCE_HSE;
 471              		.loc 1 288 34 is_stmt 0 view .LVU91
 472 0030 0222     		movs	r2, #2
 473 0032 1192     		str	r2, [sp, #68]
 289:Core/Src/main.c ****   RCC_OscInitStruct.PLL.PLLMUL = RCC_PLL_MUL9;
 474              		.loc 1 289 3 is_stmt 1 view .LVU92
 289:Core/Src/main.c ****   RCC_OscInitStruct.PLL.PLLMUL = RCC_PLL_MUL9;
 475              		.loc 1 289 35 is_stmt 0 view .LVU93
 476 0034 1293     		str	r3, [sp, #72]
 290:Core/Src/main.c ****   if (HAL_RCC_OscConfig(&RCC_OscInitStruct) != HAL_OK)
 477              		.loc 1 290 3 is_stmt 1 view .LVU94
 290:Core/Src/main.c ****   if (HAL_RCC_OscConfig(&RCC_OscInitStruct) != HAL_OK)
 478              		.loc 1 290 32 is_stmt 0 view .LVU95
 479 0036 4FF4E013 		mov	r3, #1835008
 480 003a 1393     		str	r3, [sp, #76]
 291:Core/Src/main.c ****   {
 481              		.loc 1 291 3 is_stmt 1 view .LVU96
 291:Core/Src/main.c ****   {
 482              		.loc 1 291 7 is_stmt 0 view .LVU97
 483 003c 0AA8     		add	r0, sp, #40
 484 003e FFF7FEFF 		bl	HAL_RCC_OscConfig
 485              	.LVL40:
 291:Core/Src/main.c ****   {
 486              		.loc 1 291 6 view .LVU98
 487 0042 C8B9     		cbnz	r0, .L38
 297:Core/Src/main.c ****                               |RCC_CLOCKTYPE_PCLK1|RCC_CLOCKTYPE_PCLK2;
 488              		.loc 1 297 3 is_stmt 1 view .LVU99
 297:Core/Src/main.c ****                               |RCC_CLOCKTYPE_PCLK1|RCC_CLOCKTYPE_PCLK2;
 489              		.loc 1 297 31 is_stmt 0 view .LVU100
 490 0044 0F23     		movs	r3, #15
 491 0046 0593     		str	r3, [sp, #20]
ARM GAS  C:\Users\dung\AppData\Local\Temp\ccb9zUxA.s 			page 19


 299:Core/Src/main.c ****   RCC_ClkInitStruct.AHBCLKDivider = RCC_SYSCLK_DIV1;
 492              		.loc 1 299 3 is_stmt 1 view .LVU101
 299:Core/Src/main.c ****   RCC_ClkInitStruct.AHBCLKDivider = RCC_SYSCLK_DIV1;
 493              		.loc 1 299 34 is_stmt 0 view .LVU102
 494 0048 0221     		movs	r1, #2
 495 004a 0691     		str	r1, [sp, #24]
 300:Core/Src/main.c ****   RCC_ClkInitStruct.APB1CLKDivider = RCC_HCLK_DIV2;
 496              		.loc 1 300 3 is_stmt 1 view .LVU103
 300:Core/Src/main.c ****   RCC_ClkInitStruct.APB1CLKDivider = RCC_HCLK_DIV2;
 497              		.loc 1 300 35 is_stmt 0 view .LVU104
 498 004c 0023     		movs	r3, #0
 499 004e 0793     		str	r3, [sp, #28]
 301:Core/Src/main.c ****   RCC_ClkInitStruct.APB2CLKDivider = RCC_HCLK_DIV1;
 500              		.loc 1 301 3 is_stmt 1 view .LVU105
 301:Core/Src/main.c ****   RCC_ClkInitStruct.APB2CLKDivider = RCC_HCLK_DIV1;
 501              		.loc 1 301 36 is_stmt 0 view .LVU106
 502 0050 4FF48062 		mov	r2, #1024
 503 0054 0892     		str	r2, [sp, #32]
 302:Core/Src/main.c **** 
 504              		.loc 1 302 3 is_stmt 1 view .LVU107
 302:Core/Src/main.c **** 
 505              		.loc 1 302 36 is_stmt 0 view .LVU108
 506 0056 0993     		str	r3, [sp, #36]
 304:Core/Src/main.c ****   {
 507              		.loc 1 304 3 is_stmt 1 view .LVU109
 304:Core/Src/main.c ****   {
 508              		.loc 1 304 7 is_stmt 0 view .LVU110
 509 0058 05A8     		add	r0, sp, #20
 510 005a FFF7FEFF 		bl	HAL_RCC_ClockConfig
 511              	.LVL41:
 304:Core/Src/main.c ****   {
 512              		.loc 1 304 6 view .LVU111
 513 005e 68B9     		cbnz	r0, .L39
 308:Core/Src/main.c ****   PeriphClkInit.AdcClockSelection = RCC_ADCPCLK2_DIV6;
 514              		.loc 1 308 3 is_stmt 1 view .LVU112
 308:Core/Src/main.c ****   PeriphClkInit.AdcClockSelection = RCC_ADCPCLK2_DIV6;
 515              		.loc 1 308 38 is_stmt 0 view .LVU113
 516 0060 0223     		movs	r3, #2
 517 0062 0193     		str	r3, [sp, #4]
 309:Core/Src/main.c ****   if (HAL_RCCEx_PeriphCLKConfig(&PeriphClkInit) != HAL_OK)
 518              		.loc 1 309 3 is_stmt 1 view .LVU114
 309:Core/Src/main.c ****   if (HAL_RCCEx_PeriphCLKConfig(&PeriphClkInit) != HAL_OK)
 519              		.loc 1 309 35 is_stmt 0 view .LVU115
 520 0064 4FF40043 		mov	r3, #32768
 521 0068 0393     		str	r3, [sp, #12]
 310:Core/Src/main.c ****   {
 522              		.loc 1 310 3 is_stmt 1 view .LVU116
 310:Core/Src/main.c ****   {
 523              		.loc 1 310 7 is_stmt 0 view .LVU117
 524 006a 01A8     		add	r0, sp, #4
 525 006c FFF7FEFF 		bl	HAL_RCCEx_PeriphCLKConfig
 526              	.LVL42:
 310:Core/Src/main.c ****   {
 527              		.loc 1 310 6 view .LVU118
 528 0070 30B9     		cbnz	r0, .L40
 314:Core/Src/main.c **** 
 529              		.loc 1 314 1 view .LVU119
ARM GAS  C:\Users\dung\AppData\Local\Temp\ccb9zUxA.s 			page 20


 530 0072 15B0     		add	sp, sp, #84
 531              	.LCFI5:
 532              		.cfi_remember_state
 533              		.cfi_def_cfa_offset 4
 534              		@ sp needed
 535 0074 5DF804FB 		ldr	pc, [sp], #4
 536              	.L38:
 537              	.LCFI6:
 538              		.cfi_restore_state
 293:Core/Src/main.c ****   }
 539              		.loc 1 293 5 is_stmt 1 view .LVU120
 540 0078 FFF7FEFF 		bl	Error_Handler
 541              	.LVL43:
 542              	.L39:
 306:Core/Src/main.c ****   }
 543              		.loc 1 306 5 view .LVU121
 544 007c FFF7FEFF 		bl	Error_Handler
 545              	.LVL44:
 546              	.L40:
 312:Core/Src/main.c ****   }
 547              		.loc 1 312 5 view .LVU122
 548 0080 FFF7FEFF 		bl	Error_Handler
 549              	.LVL45:
 550              		.cfi_endproc
 551              	.LFE72:
 553              		.section	.rodata.main.str1.4,"aMS",%progbits,1
 554              		.align	2
 555              	.LC0:
 556 0000 42617420 		.ascii	"Bat dau gui tin nhan\015\012\000"
 556      64617520 
 556      67756920 
 556      74696E20 
 556      6E68616E 
 557 0017 00       		.align	2
 558              	.LC1:
 559 0018 68747470 		.ascii	"https://www.google.com/maps/search/?api=1&query=%s,"
 559      733A2F2F 
 559      7777772E 
 559      676F6F67 
 559      6C652E63 
 560 004b 25730A00 		.ascii	"%s\012\000"
 561 004f 00       		.align	2
 562              	.LC2:
 563 0050 446F6920 		.ascii	"Doi mot luc\015\012\000"
 563      6D6F7420 
 563      6C75630D 
 563      0A00
 564              		.section	.text.main,"ax",%progbits
 565              		.align	1
 566              		.global	main
 567              		.syntax unified
 568              		.thumb
 569              		.thumb_func
 571              	main:
 572              	.LFB71:
 155:Core/Src/main.c ****   /* USER CODE BEGIN 1 */
 573              		.loc 1 155 1 view -0
ARM GAS  C:\Users\dung\AppData\Local\Temp\ccb9zUxA.s 			page 21


 574              		.cfi_startproc
 575              		@ args = 0, pretend = 0, frame = 0
 576              		@ frame_needed = 0, uses_anonymous_args = 0
 577 0000 F8B5     		push	{r3, r4, r5, r6, r7, lr}
 578              	.LCFI7:
 579              		.cfi_def_cfa_offset 24
 580              		.cfi_offset 3, -24
 581              		.cfi_offset 4, -20
 582              		.cfi_offset 5, -16
 583              		.cfi_offset 6, -12
 584              		.cfi_offset 7, -8
 585              		.cfi_offset 14, -4
 157:Core/Src/main.c ****   uint32_t timeCurrent = 0;
 586              		.loc 1 157 3 view .LVU124
 587              	.LVL46:
 158:Core/Src/main.c **** 
 588              		.loc 1 158 3 view .LVU125
 169:Core/Src/main.c **** 
 589              		.loc 1 169 3 view .LVU126
 590 0002 FFF7FEFF 		bl	HAL_Init
 591              	.LVL47:
 176:Core/Src/main.c **** 
 592              		.loc 1 176 3 view .LVU127
 593 0006 FFF7FEFF 		bl	SystemClock_Config
 594              	.LVL48:
 183:Core/Src/main.c ****   MX_ADC1_Init();
 595              		.loc 1 183 3 view .LVU128
 596 000a FFF7FEFF 		bl	MX_GPIO_Init
 597              	.LVL49:
 184:Core/Src/main.c ****   MX_USART2_UART_Init();
 598              		.loc 1 184 3 view .LVU129
 599 000e FFF7FEFF 		bl	MX_ADC1_Init
 600              	.LVL50:
 185:Core/Src/main.c ****   MX_USART3_UART_Init();
 601              		.loc 1 185 3 view .LVU130
 602 0012 FFF7FEFF 		bl	MX_USART2_UART_Init
 603              	.LVL51:
 186:Core/Src/main.c ****   MX_USART1_UART_Init();
 604              		.loc 1 186 3 view .LVU131
 605 0016 FFF7FEFF 		bl	MX_USART3_UART_Init
 606              	.LVL52:
 187:Core/Src/main.c ****   MX_TIM2_Init();
 607              		.loc 1 187 3 view .LVU132
 608 001a FFF7FEFF 		bl	MX_USART1_UART_Init
 609              	.LVL53:
 188:Core/Src/main.c ****   MX_TIM1_Init();
 610              		.loc 1 188 3 view .LVU133
 611 001e FFF7FEFF 		bl	MX_TIM2_Init
 612              	.LVL54:
 189:Core/Src/main.c ****   /* USER CODE BEGIN 2 */
 613              		.loc 1 189 3 view .LVU134
 614 0022 FFF7FEFF 		bl	MX_TIM1_Init
 615              	.LVL55:
 191:Core/Src/main.c ****   timeStart = HAL_GetTick();
 616              		.loc 1 191 3 view .LVU135
 617 0026 3848     		ldr	r0, .L49
 618 0028 FFF7FEFF 		bl	HAL_ADC_Start
ARM GAS  C:\Users\dung\AppData\Local\Temp\ccb9zUxA.s 			page 22


 619              	.LVL56:
 192:Core/Src/main.c ****   while(HAL_GPIO_ReadPin(GSM_STATUS_GPIO_Port, GSM_STATUS_Pin) == GPIO_PIN_RESET)
 620              		.loc 1 192 3 view .LVU136
 192:Core/Src/main.c ****   while(HAL_GPIO_ReadPin(GSM_STATUS_GPIO_Port, GSM_STATUS_Pin) == GPIO_PIN_RESET)
 621              		.loc 1 192 15 is_stmt 0 view .LVU137
 622 002c FFF7FEFF 		bl	HAL_GetTick
 623              	.LVL57:
 624 0030 0546     		mov	r5, r0
 625              	.LVL58:
 193:Core/Src/main.c ****   {
 626              		.loc 1 193 3 is_stmt 1 view .LVU138
 193:Core/Src/main.c ****   {
 627              		.loc 1 193 8 is_stmt 0 view .LVU139
 628 0032 09E0     		b	.L42
 629              	.LVL59:
 630              	.L43:
 195:Core/Src/main.c ****     HAL_Delay(1000);
 631              		.loc 1 195 5 is_stmt 1 view .LVU140
 632 0034 0122     		movs	r2, #1
 633 0036 4FF48071 		mov	r1, #256
 634 003a 3448     		ldr	r0, .L49+4
 635 003c FFF7FEFF 		bl	HAL_GPIO_WritePin
 636              	.LVL60:
 196:Core/Src/main.c ****   }
 637              		.loc 1 196 5 view .LVU141
 638 0040 4FF47A70 		mov	r0, #1000
 639 0044 FFF7FEFF 		bl	HAL_Delay
 640              	.LVL61:
 641              	.L42:
 193:Core/Src/main.c ****   {
 642              		.loc 1 193 8 view .LVU142
 193:Core/Src/main.c ****   {
 643              		.loc 1 193 9 is_stmt 0 view .LVU143
 644 0048 4FF48051 		mov	r1, #4096
 645 004c 2F48     		ldr	r0, .L49+4
 646 004e FFF7FEFF 		bl	HAL_GPIO_ReadPin
 647              	.LVL62:
 193:Core/Src/main.c ****   {
 648              		.loc 1 193 8 view .LVU144
 649 0052 0028     		cmp	r0, #0
 650 0054 EED0     		beq	.L43
 198:Core/Src/main.c ****   HAL_Delay(100);
 651              		.loc 1 198 3 is_stmt 1 view .LVU145
 652 0056 FFF7FEFF 		bl	sim800c_init
 653              	.LVL63:
 199:Core/Src/main.c ****   l70_init();
 654              		.loc 1 199 3 view .LVU146
 655 005a 6420     		movs	r0, #100
 656 005c FFF7FEFF 		bl	HAL_Delay
 657              	.LVL64:
 200:Core/Src/main.c ****   HAL_Delay(100);
 658              		.loc 1 200 3 view .LVU147
 659 0060 FFF7FEFF 		bl	l70_init
 660              	.LVL65:
 201:Core/Src/main.c ****   // do
 661              		.loc 1 201 3 view .LVU148
 662 0064 6420     		movs	r0, #100
ARM GAS  C:\Users\dung\AppData\Local\Temp\ccb9zUxA.s 			page 23


 663 0066 FFF7FEFF 		bl	HAL_Delay
 664              	.LVL66:
 665 006a 0DE0     		b	.L45
 666              	.LVL67:
 667              	.L46:
 239:Core/Src/main.c ****         SOSFlag = false;
 668              		.loc 1 239 9 view .LVU149
 669 006c 6423     		movs	r3, #100
 670 006e 0D22     		movs	r2, #13
 671 0070 2749     		ldr	r1, .L49+8
 672 0072 2848     		ldr	r0, .L49+12
 673              	.LVL68:
 239:Core/Src/main.c ****         SOSFlag = false;
 674              		.loc 1 239 9 is_stmt 0 view .LVU150
 675 0074 FFF7FEFF 		bl	HAL_UART_Transmit
 676              	.LVL69:
 240:Core/Src/main.c ****         HAL_GPIO_WritePin(MCU_BUZZER_GPIO_Port, MCU_BUZZER_Pin, RESET); 
 677              		.loc 1 240 9 is_stmt 1 view .LVU151
 240:Core/Src/main.c ****         HAL_GPIO_WritePin(MCU_BUZZER_GPIO_Port, MCU_BUZZER_Pin, RESET); 
 678              		.loc 1 240 17 is_stmt 0 view .LVU152
 679 0078 0022     		movs	r2, #0
 680 007a 274B     		ldr	r3, .L49+16
 681 007c 1A70     		strb	r2, [r3]
 241:Core/Src/main.c ****       }
 682              		.loc 1 241 9 is_stmt 1 view .LVU153
 683 007e 4FF40041 		mov	r1, #32768
 684 0082 2648     		ldr	r0, .L49+20
 685 0084 FFF7FEFF 		bl	HAL_GPIO_WritePin
 686              	.LVL70:
 687              	.L45:
 215:Core/Src/main.c ****   {
 688              		.loc 1 215 3 view .LVU154
 221:Core/Src/main.c ****     {
 689              		.loc 1 221 5 view .LVU155
 221:Core/Src/main.c ****     {
 690              		.loc 1 221 16 is_stmt 0 view .LVU156
 691 0088 234B     		ldr	r3, .L49+16
 692 008a 1B78     		ldrb	r3, [r3]	@ zero_extendqisi2
 221:Core/Src/main.c ****     {
 693              		.loc 1 221 7 view .LVU157
 694 008c 002B     		cmp	r3, #0
 695 008e FBD0     		beq	.L45
 223:Core/Src/main.c ****       timeCurrent = HAL_GetTick();
 696              		.loc 1 223 7 is_stmt 1 view .LVU158
 697 0090 0122     		movs	r2, #1
 698 0092 4FF40041 		mov	r1, #32768
 699 0096 2148     		ldr	r0, .L49+20
 700 0098 FFF7FEFF 		bl	HAL_GPIO_WritePin
 701              	.LVL71:
 224:Core/Src/main.c ****       if(timeCurrent - timeStart > 3000)
 702              		.loc 1 224 7 view .LVU159
 224:Core/Src/main.c ****       if(timeCurrent - timeStart > 3000)
 703              		.loc 1 224 21 is_stmt 0 view .LVU160
 704 009c FFF7FEFF 		bl	HAL_GetTick
 705              	.LVL72:
 706 00a0 0446     		mov	r4, r0
 707              	.LVL73:
ARM GAS  C:\Users\dung\AppData\Local\Temp\ccb9zUxA.s 			page 24


 225:Core/Src/main.c ****       {
 708              		.loc 1 225 7 is_stmt 1 view .LVU161
 225:Core/Src/main.c ****       {
 709              		.loc 1 225 22 is_stmt 0 view .LVU162
 710 00a2 421B     		subs	r2, r0, r5
 225:Core/Src/main.c ****       {
 711              		.loc 1 225 9 view .LVU163
 712 00a4 40F6B833 		movw	r3, #3000
 713 00a8 9A42     		cmp	r2, r3
 714 00aa DFD9     		bls	.L46
 227:Core/Src/main.c ****         HAL_UART_Transmit(&huart1, (uint8_t*)"Bat dau gui tin nhan\r\n", strlen("Bat dau gui tin nh
 715              		.loc 1 227 9 is_stmt 1 view .LVU164
 716              	.LVL74:
 228:Core/Src/main.c ****         GPSResponse = l70_receiveGPS();
 717              		.loc 1 228 9 view .LVU165
 718 00ac 6423     		movs	r3, #100
 719 00ae 1622     		movs	r2, #22
 720 00b0 1B49     		ldr	r1, .L49+24
 721 00b2 1848     		ldr	r0, .L49+12
 722              	.LVL75:
 228:Core/Src/main.c ****         GPSResponse = l70_receiveGPS();
 723              		.loc 1 228 9 is_stmt 0 view .LVU166
 724 00b4 FFF7FEFF 		bl	HAL_UART_Transmit
 725              	.LVL76:
 229:Core/Src/main.c ****         HAL_GPIO_WritePin(MCU_BUZZER_GPIO_Port, MCU_BUZZER_Pin, RESET); 
 726              		.loc 1 229 9 is_stmt 1 view .LVU167
 229:Core/Src/main.c ****         HAL_GPIO_WritePin(MCU_BUZZER_GPIO_Port, MCU_BUZZER_Pin, RESET); 
 727              		.loc 1 229 23 is_stmt 0 view .LVU168
 728 00b8 FFF7FEFF 		bl	l70_receiveGPS
 729              	.LVL77:
 229:Core/Src/main.c ****         HAL_GPIO_WritePin(MCU_BUZZER_GPIO_Port, MCU_BUZZER_Pin, RESET); 
 730              		.loc 1 229 21 view .LVU169
 731 00bc 194D     		ldr	r5, .L49+28
 732 00be 2860     		str	r0, [r5]
 230:Core/Src/main.c ****         l70_handleGPS(latData, longData, GPSResponse);
 733              		.loc 1 230 9 is_stmt 1 view .LVU170
 734 00c0 0022     		movs	r2, #0
 735 00c2 4FF40041 		mov	r1, #32768
 736 00c6 1548     		ldr	r0, .L49+20
 737 00c8 FFF7FEFF 		bl	HAL_GPIO_WritePin
 738              	.LVL78:
 231:Core/Src/main.c ****         sprintf(simMessage, "https://www.google.com/maps/search/?api=1&query=%s,%s\n", latData, lon
 739              		.loc 1 231 9 view .LVU171
 740 00cc 164F     		ldr	r7, .L49+32
 741 00ce 174E     		ldr	r6, .L49+36
 742 00d0 2A68     		ldr	r2, [r5]
 743 00d2 3946     		mov	r1, r7
 744 00d4 3046     		mov	r0, r6
 745 00d6 FFF7FEFF 		bl	l70_handleGPS
 746              	.LVL79:
 232:Core/Src/main.c ****         sim800c_sendSMS(latData, longData, simNumber, simMessage);
 747              		.loc 1 232 9 view .LVU172
 748 00da 154D     		ldr	r5, .L49+40
 749 00dc 3B46     		mov	r3, r7
 750 00de 3246     		mov	r2, r6
 751 00e0 1449     		ldr	r1, .L49+44
 752 00e2 2846     		mov	r0, r5
ARM GAS  C:\Users\dung\AppData\Local\Temp\ccb9zUxA.s 			page 25


 753 00e4 FFF7FEFF 		bl	sprintf
 754              	.LVL80:
 233:Core/Src/main.c ****         memset(simMessage, '\0', sizeof(simMessage));
 755              		.loc 1 233 9 view .LVU173
 756 00e8 2B46     		mov	r3, r5
 757 00ea 134A     		ldr	r2, .L49+48
 758 00ec 3946     		mov	r1, r7
 759 00ee 3046     		mov	r0, r6
 760 00f0 FFF7FEFF 		bl	sim800c_sendSMS
 761              	.LVL81:
 234:Core/Src/main.c ****         SOSFlag = false;
 762              		.loc 1 234 9 view .LVU174
 763 00f4 6422     		movs	r2, #100
 764 00f6 0021     		movs	r1, #0
 765 00f8 2846     		mov	r0, r5
 766 00fa FFF7FEFF 		bl	memset
 767              	.LVL82:
 235:Core/Src/main.c ****       }
 768              		.loc 1 235 9 view .LVU175
 235:Core/Src/main.c ****       }
 769              		.loc 1 235 17 is_stmt 0 view .LVU176
 770 00fe 064B     		ldr	r3, .L49+16
 771 0100 0022     		movs	r2, #0
 772 0102 1A70     		strb	r2, [r3]
 227:Core/Src/main.c ****         HAL_UART_Transmit(&huart1, (uint8_t*)"Bat dau gui tin nhan\r\n", strlen("Bat dau gui tin nh
 773              		.loc 1 227 19 view .LVU177
 774 0104 2546     		mov	r5, r4
 775 0106 BFE7     		b	.L45
 776              	.L50:
 777              		.align	2
 778              	.L49:
 779 0108 00000000 		.word	hadc1
 780 010c 00080140 		.word	1073809408
 781 0110 50000000 		.word	.LC2
 782 0114 00000000 		.word	huart1
 783 0118 00000000 		.word	.LANCHOR1
 784 011c 000C0140 		.word	1073810432
 785 0120 00000000 		.word	.LC0
 786 0124 00000000 		.word	.LANCHOR2
 787 0128 00000000 		.word	.LANCHOR3
 788 012c 00000000 		.word	.LANCHOR4
 789 0130 00000000 		.word	.LANCHOR5
 790 0134 18000000 		.word	.LC1
 791 0138 00000000 		.word	.LANCHOR6
 792              		.cfi_endproc
 793              	.LFE71:
 795              		.global	ADC_value
 796              		.global	GPSResponse
 797              		.global	simMessage
 798              		.global	longData
 799              		.global	latData
 800              		.global	simNumber
 801              		.global	SOSFlag
 802              		.section	.bss.ADC_value,"aw",%nobits
 803              		.align	1
 804              		.set	.LANCHOR0,. + 0
 807              	ADC_value:
ARM GAS  C:\Users\dung\AppData\Local\Temp\ccb9zUxA.s 			page 26


 808 0000 0000     		.space	2
 809              		.section	.bss.GPSResponse,"aw",%nobits
 810              		.align	2
 811              		.set	.LANCHOR2,. + 0
 814              	GPSResponse:
 815 0000 00000000 		.space	4
 816              		.section	.bss.SOSFlag,"aw",%nobits
 817              		.set	.LANCHOR1,. + 0
 820              	SOSFlag:
 821 0000 00       		.space	1
 822              		.section	.bss.latData,"aw",%nobits
 823              		.align	2
 824              		.set	.LANCHOR4,. + 0
 827              	latData:
 828 0000 00000000 		.space	15
 828      00000000 
 828      00000000 
 828      000000
 829              		.section	.bss.longData,"aw",%nobits
 830              		.align	2
 831              		.set	.LANCHOR3,. + 0
 834              	longData:
 835 0000 00000000 		.space	15
 835      00000000 
 835      00000000 
 835      000000
 836              		.section	.bss.simMessage,"aw",%nobits
 837              		.align	2
 838              		.set	.LANCHOR5,. + 0
 841              	simMessage:
 842 0000 00000000 		.space	100
 842      00000000 
 842      00000000 
 842      00000000 
 842      00000000 
 843              		.section	.data.simNumber,"aw"
 844              		.align	2
 845              		.set	.LANCHOR6,. + 0
 848              	simNumber:
 849 0000 30393837 		.ascii	"0987035442\000"
 849      30333534 
 849      343200
 850 000b 00000000 		.space	9
 850      00000000 
 850      00
 851              		.text
 852              	.Letext0:
 853              		.file 3 "c:\\program files (x86)\\gcc-arm-none-eabi-10.3-2021.10-win32\\gcc-arm-none-eabi-10.3-202
 854              		.file 4 "c:\\program files (x86)\\gcc-arm-none-eabi-10.3-2021.10-win32\\gcc-arm-none-eabi-10.3-202
 855              		.file 5 "Drivers/CMSIS/Device/ST/STM32F1xx/Include/stm32f103xb.h"
 856              		.file 6 "Drivers/CMSIS/Device/ST/STM32F1xx/Include/stm32f1xx.h"
 857              		.file 7 "Drivers/STM32F1xx_HAL_Driver/Inc/stm32f1xx_hal_def.h"
 858              		.file 8 "Drivers/STM32F1xx_HAL_Driver/Inc/stm32f1xx_hal_rcc.h"
 859              		.file 9 "Drivers/STM32F1xx_HAL_Driver/Inc/stm32f1xx_hal_rcc_ex.h"
 860              		.file 10 "Drivers/STM32F1xx_HAL_Driver/Inc/stm32f1xx_hal_gpio.h"
 861              		.file 11 "Drivers/STM32F1xx_HAL_Driver/Inc/stm32f1xx_hal_dma.h"
 862              		.file 12 "Drivers/STM32F1xx_HAL_Driver/Inc/stm32f1xx_hal_adc.h"
ARM GAS  C:\Users\dung\AppData\Local\Temp\ccb9zUxA.s 			page 27


 863              		.file 13 "Drivers/STM32F1xx_HAL_Driver/Inc/stm32f1xx_hal_tim.h"
 864              		.file 14 "Drivers/STM32F1xx_HAL_Driver/Inc/stm32f1xx_hal_uart.h"
 865              		.file 15 "Core/Inc/adc.h"
 866              		.file 16 "Core/Inc/tim.h"
 867              		.file 17 "Core/Inc/usart.h"
 868              		.file 18 "Drivers/STM32F1xx_HAL_Driver/Inc/stm32f1xx_hal.h"
 869              		.file 19 "Core/Inc/gpio.h"
 870              		.file 20 "Core/Inc/sim800c.h"
 871              		.file 21 "Core/Inc/l70.h"
 872              		.file 22 "c:\\program files (x86)\\gcc-arm-none-eabi-10.3-2021.10-win32\\gcc-arm-none-eabi-10.3-20
 873              		.file 23 "<built-in>"
ARM GAS  C:\Users\dung\AppData\Local\Temp\ccb9zUxA.s 			page 28

